   1               		.file	"tasks.c"
   2               	__SP_H__ = 0x3e
   3               	__SP_L__ = 0x3d
   4               	__SREG__ = 0x3f
   5               	__tmp_reg__ = 0
   6               	__zero_reg__ = 1
   7               		.text
   9               	prvResetNextTaskUnblockTime:
  10               	/* prologue: function */
  11               	/* frame size = 0 */
  12               	/* stack size = 0 */
  13               	.L__stack_usage = 0
  14 0000 E091 0000 		lds r30,pxDelayedTaskList
  15 0004 F091 0000 		lds r31,pxDelayedTaskList+1
  16 0008 8081      		ld r24,Z
  17 000a 8111      		cpse r24,__zero_reg__
  18 000c 00C0      		rjmp .L2
  19 000e 8FEF      		ldi r24,lo8(-1)
  20 0010 9FEF      		ldi r25,lo8(-1)
  21 0012 9093 0000 		sts xNextTaskUnblockTime+1,r25
  22 0016 8093 0000 		sts xNextTaskUnblockTime,r24
  23 001a 0895      		ret
  24               	.L2:
  25 001c E091 0000 		lds r30,pxDelayedTaskList
  26 0020 F091 0000 		lds r31,pxDelayedTaskList+1
  27 0024 0580      		ldd __tmp_reg__,Z+5
  28 0026 F681      		ldd r31,Z+6
  29 0028 E02D      		mov r30,__tmp_reg__
  30 002a 8081      		ld r24,Z
  31 002c 9181      		ldd r25,Z+1
  32 002e 9093 0000 		sts xNextTaskUnblockTime+1,r25
  33 0032 8093 0000 		sts xNextTaskUnblockTime,r24
  34               	/* epilogue start */
  35 0036 0895      		ret
  38               	prvAddCurrentTaskToDelayedList:
  39 0038 0F93      		push r16
  40 003a 1F93      		push r17
  41 003c CF93      		push r28
  42 003e DF93      		push r29
  43               	/* prologue: function */
  44               	/* frame size = 0 */
  45               	/* stack size = 4 */
  46               	.L__stack_usage = 4
  47 0040 C82F      		mov r28,r24
  48 0042 D92F      		mov r29,r25
  49 0044 0091 0000 		lds r16,xTickCount
  50 0048 1091 0000 		lds r17,xTickCount+1
  51 004c 8091 0000 		lds r24,pxCurrentTCB
  52 0050 9091 0000 		lds r25,pxCurrentTCB+1
  53 0054 0296      		adiw r24,2
  54 0056 0E94 0000 		call uxListRemove
  55 005a C00F      		add r28,r16
  56 005c D11F      		adc r29,r17
  57 005e E091 0000 		lds r30,pxCurrentTCB
  58 0062 F091 0000 		lds r31,pxCurrentTCB+1
  59 0066 D383      		std Z+3,r29
  60 0068 C283      		std Z+2,r28
  61 006a C017      		cp r28,r16
  62 006c D107      		cpc r29,r17
  63 006e 00F4      		brsh .L5
  64 0070 6091 0000 		lds r22,pxCurrentTCB
  65 0074 7091 0000 		lds r23,pxCurrentTCB+1
  66 0078 8091 0000 		lds r24,pxOverflowDelayedTaskList
  67 007c 9091 0000 		lds r25,pxOverflowDelayedTaskList+1
  68 0080 6E5F      		subi r22,-2
  69 0082 7F4F      		sbci r23,-1
  70 0084 0E94 0000 		call vListInsert
  71               	.L4:
  72               	/* epilogue start */
  73 0088 DF91      		pop r29
  74 008a CF91      		pop r28
  75 008c 1F91      		pop r17
  76 008e 0F91      		pop r16
  77 0090 0895      		ret
  78               	.L5:
  79 0092 6091 0000 		lds r22,pxCurrentTCB
  80 0096 7091 0000 		lds r23,pxCurrentTCB+1
  81 009a 8091 0000 		lds r24,pxDelayedTaskList
  82 009e 9091 0000 		lds r25,pxDelayedTaskList+1
  83 00a2 6E5F      		subi r22,-2
  84 00a4 7F4F      		sbci r23,-1
  85 00a6 0E94 0000 		call vListInsert
  86 00aa 8091 0000 		lds r24,xNextTaskUnblockTime
  87 00ae 9091 0000 		lds r25,xNextTaskUnblockTime+1
  88 00b2 C817      		cp r28,r24
  89 00b4 D907      		cpc r29,r25
  90 00b6 00F4      		brsh .L4
  91 00b8 D093 0000 		sts xNextTaskUnblockTime+1,r29
  92 00bc C093 0000 		sts xNextTaskUnblockTime,r28
  93 00c0 00C0      		rjmp .L4
  96               	prvIdleTask:
  97               	/* prologue: function */
  98               	/* frame size = 0 */
  99               	/* stack size = 0 */
 100               	.L__stack_usage = 0
 101 00c2 00E0      		ldi r16,lo8(xTasksWaitingTermination)
 102 00c4 10E0      		ldi r17,hi8(xTasksWaitingTermination)
 103 00c6 0F2E      		mov __tmp_reg__,r31
 104 00c8 F0E0      		ldi r31,lo8(pxReadyTasksLists)
 105 00ca EF2E      		mov r14,r31
 106 00cc F0E0      		ldi r31,hi8(pxReadyTasksLists)
 107 00ce FF2E      		mov r15,r31
 108 00d0 F02D      		mov r31,__tmp_reg__
 109 00d2 00C0      		rjmp .L11
 110               	.L13:
 111 00d4 0E94 0000 		call vPortYield
 112               	.L10:
 113 00d8 0E94 0000 		call vApplicationIdleHook
 114               	.L11:
 115 00dc 8091 0000 		lds r24,uxDeletedTasksWaitingCleanUp
 116 00e0 8823      		tst r24
 117 00e2 01F0      		breq .L8
 118               	.L9:
 119               	/* #APP */
 120               	 ;  3701 "FreeRTOS\tasks.c" 1
 121 00e4 0FB6      		in		__tmp_reg__, __SREG__
 122               	 ;  0 "" 2
 123               	 ;  3701 "FreeRTOS\tasks.c" 1
 124 00e6 F894      		cli
 125               	 ;  0 "" 2
 126               	 ;  3701 "FreeRTOS\tasks.c" 1
 127 00e8 0F92      		push	__tmp_reg__
 128               	 ;  0 "" 2
 129               	/* #NOAPP */
 130 00ea D801      		movw r26,r16
 131 00ec 1596      		adiw r26,5
 132 00ee ED91      		ld r30,X+
 133 00f0 FC91      		ld r31,X
 134 00f2 C681      		ldd r28,Z+6
 135 00f4 D781      		ldd r29,Z+7
 136 00f6 CE01      		movw r24,r28
 137 00f8 0296      		adiw r24,2
 138 00fa 0E94 0000 		call uxListRemove
 139 00fe 8091 0000 		lds r24,uxCurrentNumberOfTasks
 140 0102 8150      		subi r24,lo8(-(-1))
 141 0104 8093 0000 		sts uxCurrentNumberOfTasks,r24
 142 0108 8091 0000 		lds r24,uxDeletedTasksWaitingCleanUp
 143 010c 8150      		subi r24,lo8(-(-1))
 144 010e 8093 0000 		sts uxDeletedTasksWaitingCleanUp,r24
 145               	/* #APP */
 146               	 ;  3708 "FreeRTOS\tasks.c" 1
 147 0112 0F90      		pop		__tmp_reg__
 148               	 ;  0 "" 2
 149               	 ;  3708 "FreeRTOS\tasks.c" 1
 150 0114 0FBE      		out		__SREG__, __tmp_reg__
 151               	 ;  0 "" 2
 152               	/* #NOAPP */
 153 0116 8F89      		ldd r24,Y+23
 154 0118 988D      		ldd r25,Y+24
 155 011a 0E94 0000 		call vPortFree
 156 011e CE01      		movw r24,r28
 157 0120 0E94 0000 		call vPortFree
 158 0124 8091 0000 		lds r24,uxDeletedTasksWaitingCleanUp
 159 0128 8111      		cpse r24,__zero_reg__
 160 012a 00C0      		rjmp .L9
 161               	.L8:
 162 012c F701      		movw r30,r14
 163 012e 8081      		ld r24,Z
 164 0130 8230      		cpi r24,lo8(2)
 165 0132 00F4      		brsh .L13
 166 0134 00C0      		rjmp .L10
 168               	.global	xTaskCreate
 170               	xTaskCreate:
 171 0136 5F92      		push r5
 172 0138 6F92      		push r6
 173 013a 7F92      		push r7
 174 013c 8F92      		push r8
 175 013e 9F92      		push r9
 176 0140 AF92      		push r10
 177 0142 BF92      		push r11
 178 0144 CF92      		push r12
 179 0146 DF92      		push r13
 180 0148 EF92      		push r14
 181 014a FF92      		push r15
 182 014c 0F93      		push r16
 183 014e 1F93      		push r17
 184 0150 CF93      		push r28
 185 0152 DF93      		push r29
 186               	/* prologue: function */
 187               	/* frame size = 0 */
 188               	/* stack size = 15 */
 189               	.L__stack_usage = 15
 190 0154 782E      		mov r7,r24
 191 0156 192F      		mov r17,r25
 192 0158 A62E      		mov r10,r22
 193 015a B72E      		mov r11,r23
 194 015c C42E      		mov r12,r20
 195 015e D52E      		mov r13,r21
 196 0160 622E      		mov r6,r18
 197 0162 532E      		mov r5,r19
 198 0164 8E2C      		mov r8,r14
 199 0166 9F2C      		mov r9,r15
 200 0168 C601      		movw r24,r12
 201 016a 0E94 0000 		call pvPortMalloc
 202 016e E82E      		mov r14,r24
 203 0170 F92E      		mov r15,r25
 204 0172 8FEF      		ldi r24,lo8(-1)
 205 0174 E114      		cp r14,__zero_reg__
 206 0176 F104      		cpc r15,__zero_reg__
 207 0178 01F4      		brne .+2
 208 017a 00C0      		rjmp .L14
 209 017c 86E2      		ldi r24,lo8(38)
 210 017e 90E0      		ldi r25,0
 211 0180 0E94 0000 		call pvPortMalloc
 212 0184 C82F      		mov r28,r24
 213 0186 D92F      		mov r29,r25
 214 0188 2097      		sbiw r28,0
 215 018a 01F4      		brne .+2
 216 018c 00C0      		rjmp .L16
 217 018e 86E2      		ldi r24,lo8(38)
 218 0190 FE01      		movw r30,r28
 219               		0:
 220 0192 1192      		st Z+,__zero_reg__
 221 0194 8A95      		dec r24
 222 0196 01F4      		brne 0b
 223 0198 F88E      		std Y+24,r15
 224 019a EF8A      		std Y+23,r14
 225 019c F1E0      		ldi r31,1
 226 019e CF1A      		sub r12,r31
 227 01a0 D108      		sbc r13,__zero_reg__
 228 01a2 CE0C      		add r12,r14
 229 01a4 DF1C      		adc r13,r15
 230 01a6 A114      		cp r10,__zero_reg__
 231 01a8 B104      		cpc r11,__zero_reg__
 232 01aa 01F0      		breq .L18
 233 01ac F501      		movw r30,r10
 234 01ae DE01      		movw r26,r28
 235 01b0 5996      		adiw r26,25
 236 01b2 C501      		movw r24,r10
 237 01b4 0896      		adiw r24,8
 238               	.L20:
 239 01b6 2191      		ld r18,Z+
 240 01b8 2D93      		st X+,r18
 241 01ba 2223      		tst r18
 242 01bc 01F0      		breq .L19
 243 01be E817      		cp r30,r24
 244 01c0 F907      		cpc r31,r25
 245 01c2 01F4      		brne .L20
 246               	.L19:
 247 01c4 18A2      		std Y+32,__zero_reg__
 248               	.L18:
 249 01c6 0430      		cpi r16,lo8(4)
 250 01c8 00F0      		brlo .L21
 251 01ca 03E0      		ldi r16,lo8(3)
 252               	.L21:
 253 01cc 0E8B      		std Y+22,r16
 254 01ce 7E01      		movw r14,r28
 255 01d0 82E0      		ldi r24,2
 256 01d2 E80E      		add r14,r24
 257 01d4 F11C      		adc r15,__zero_reg__
 258 01d6 C701      		movw r24,r14
 259 01d8 0E94 0000 		call vListInitialiseItem
 260 01dc CE01      		movw r24,r28
 261 01de 0C96      		adiw r24,12
 262 01e0 0E94 0000 		call vListInitialiseItem
 263 01e4 D987      		std Y+9,r29
 264 01e6 C887      		std Y+8,r28
 265 01e8 84E0      		ldi r24,lo8(4)
 266 01ea 90E0      		ldi r25,0
 267 01ec 801B      		sub r24,r16
 268 01ee 9109      		sbc r25,__zero_reg__
 269 01f0 9D87      		std Y+13,r25
 270 01f2 8C87      		std Y+12,r24
 271 01f4 DB8B      		std Y+19,r29
 272 01f6 CA8B      		std Y+18,r28
 273 01f8 462D      		mov r20,r6
 274 01fa 552D      		mov r21,r5
 275 01fc 672D      		mov r22,r7
 276 01fe 712F      		mov r23,r17
 277 0200 C601      		movw r24,r12
 278 0202 0E94 0000 		call pxPortInitialiseStack
 279 0206 9983      		std Y+1,r25
 280 0208 8883      		st Y,r24
 281 020a 8114      		cp r8,__zero_reg__
 282 020c 9104      		cpc r9,__zero_reg__
 283 020e 01F0      		breq .L22
 284 0210 F401      		movw r30,r8
 285 0212 D183      		std Z+1,r29
 286 0214 C083      		st Z,r28
 287               	.L22:
 288               	/* #APP */
 289               	 ;  1030 "FreeRTOS\tasks.c" 1
 290 0216 0FB6      		in		__tmp_reg__, __SREG__
 291               	 ;  0 "" 2
 292               	 ;  1030 "FreeRTOS\tasks.c" 1
 293 0218 F894      		cli
 294               	 ;  0 "" 2
 295               	 ;  1030 "FreeRTOS\tasks.c" 1
 296 021a 0F92      		push	__tmp_reg__
 297               	 ;  0 "" 2
 298               	/* #NOAPP */
 299 021c 8091 0000 		lds r24,uxCurrentNumberOfTasks
 300 0220 8F5F      		subi r24,lo8(-(1))
 301 0222 8093 0000 		sts uxCurrentNumberOfTasks,r24
 302 0226 8091 0000 		lds r24,pxCurrentTCB
 303 022a 9091 0000 		lds r25,pxCurrentTCB+1
 304 022e 892B      		or r24,r25
 305 0230 01F0      		breq .L30
 306 0232 8091 0000 		lds r24,xSchedulerRunning
 307 0236 8111      		cpse r24,__zero_reg__
 308 0238 00C0      		rjmp .L24
 309 023a E091 0000 		lds r30,pxCurrentTCB
 310 023e F091 0000 		lds r31,pxCurrentTCB+1
 311 0242 9689      		ldd r25,Z+22
 312 0244 8E89      		ldd r24,Y+22
 313 0246 8917      		cp r24,r25
 314 0248 00F0      		brlo .L24
 315 024a D093 0000 		sts pxCurrentTCB+1,r29
 316 024e C093 0000 		sts pxCurrentTCB,r28
 317 0252 00C0      		rjmp .L24
 318               	.L16:
 319 0254 C701      		movw r24,r14
 320 0256 0E94 0000 		call vPortFree
 321 025a 8FEF      		ldi r24,lo8(-1)
 322               	.L14:
 323               	/* epilogue start */
 324 025c DF91      		pop r29
 325 025e CF91      		pop r28
 326 0260 1F91      		pop r17
 327 0262 0F91      		pop r16
 328 0264 FF90      		pop r15
 329 0266 EF90      		pop r14
 330 0268 DF90      		pop r13
 331 026a CF90      		pop r12
 332 026c BF90      		pop r11
 333 026e AF90      		pop r10
 334 0270 9F90      		pop r9
 335 0272 8F90      		pop r8
 336 0274 7F90      		pop r7
 337 0276 6F90      		pop r6
 338 0278 5F90      		pop r5
 339 027a 0895      		ret
 340               	.L30:
 341 027c D093 0000 		sts pxCurrentTCB+1,r29
 342 0280 C093 0000 		sts pxCurrentTCB,r28
 343 0284 8091 0000 		lds r24,uxCurrentNumberOfTasks
 344 0288 8130      		cpi r24,lo8(1)
 345 028a 01F4      		brne .+2
 346 028c 00C0      		rjmp .L31
 347               	.L24:
 348 028e 8091 0000 		lds r24,uxTaskNumber
 349 0292 8F5F      		subi r24,lo8(-(1))
 350 0294 8093 0000 		sts uxTaskNumber,r24
 351 0298 8E89      		ldd r24,Y+22
 352 029a 9091 0000 		lds r25,uxTopReadyPriority
 353 029e 9817      		cp r25,r24
 354 02a0 00F4      		brsh .L25
 355 02a2 8093 0000 		sts uxTopReadyPriority,r24
 356               	.L25:
 357 02a6 90E0      		ldi r25,0
 358 02a8 FC01      		movw r30,r24
 359 02aa EE0F      		lsl r30
 360 02ac FF1F      		rol r31
 361 02ae EE0F      		lsl r30
 362 02b0 FF1F      		rol r31
 363 02b2 EE0F      		lsl r30
 364 02b4 FF1F      		rol r31
 365 02b6 E80F      		add r30,r24
 366 02b8 F91F      		adc r31,r25
 367 02ba E050      		subi r30,lo8(-(pxReadyTasksLists))
 368 02bc F040      		sbci r31,hi8(-(pxReadyTasksLists))
 369 02be 0180      		ldd __tmp_reg__,Z+1
 370 02c0 F281      		ldd r31,Z+2
 371 02c2 E02D      		mov r30,__tmp_reg__
 372 02c4 FD83      		std Y+5,r31
 373 02c6 EC83      		std Y+4,r30
 374 02c8 8481      		ldd r24,Z+4
 375 02ca 9581      		ldd r25,Z+5
 376 02cc 9F83      		std Y+7,r25
 377 02ce 8E83      		std Y+6,r24
 378 02d0 A481      		ldd r26,Z+4
 379 02d2 B581      		ldd r27,Z+5
 380 02d4 1396      		adiw r26,2+1
 381 02d6 FC92      		st X,r15
 382 02d8 EE92      		st -X,r14
 383 02da 1297      		sbiw r26,2
 384 02dc F582      		std Z+5,r15
 385 02de E482      		std Z+4,r14
 386 02e0 8E89      		ldd r24,Y+22
 387 02e2 90E0      		ldi r25,0
 388 02e4 FC01      		movw r30,r24
 389 02e6 EE0F      		lsl r30
 390 02e8 FF1F      		rol r31
 391 02ea EE0F      		lsl r30
 392 02ec FF1F      		rol r31
 393 02ee EE0F      		lsl r30
 394 02f0 FF1F      		rol r31
 395 02f2 E80F      		add r30,r24
 396 02f4 F91F      		adc r31,r25
 397 02f6 E050      		subi r30,lo8(-(pxReadyTasksLists))
 398 02f8 F040      		sbci r31,hi8(-(pxReadyTasksLists))
 399 02fa FB87      		std Y+11,r31
 400 02fc EA87      		std Y+10,r30
 401 02fe 8081      		ld r24,Z
 402 0300 8F5F      		subi r24,lo8(-(1))
 403 0302 8083      		st Z,r24
 404               	/* #APP */
 405               	 ;  1088 "FreeRTOS\tasks.c" 1
 406 0304 0F90      		pop		__tmp_reg__
 407               	 ;  0 "" 2
 408               	 ;  1088 "FreeRTOS\tasks.c" 1
 409 0306 0FBE      		out		__SREG__, __tmp_reg__
 410               	 ;  0 "" 2
 411               	/* #NOAPP */
 412 0308 8091 0000 		lds r24,xSchedulerRunning
 413 030c 8823      		tst r24
 414 030e 01F0      		breq .L27
 415 0310 E091 0000 		lds r30,pxCurrentTCB
 416 0314 F091 0000 		lds r31,pxCurrentTCB+1
 417 0318 9689      		ldd r25,Z+22
 418 031a 8E89      		ldd r24,Y+22
 419 031c 9817      		cp r25,r24
 420 031e 00F0      		brlo .L32
 421 0320 81E0      		ldi r24,lo8(1)
 422 0322 00C0      		rjmp .L14
 423               	.L31:
 424 0324 80E0      		ldi r24,lo8(pxReadyTasksLists)
 425 0326 90E0      		ldi r25,hi8(pxReadyTasksLists)
 426 0328 0E94 0000 		call vListInitialise
 427 032c 80E0      		ldi r24,lo8(pxReadyTasksLists+9)
 428 032e 90E0      		ldi r25,hi8(pxReadyTasksLists+9)
 429 0330 0E94 0000 		call vListInitialise
 430 0334 80E0      		ldi r24,lo8(pxReadyTasksLists+18)
 431 0336 90E0      		ldi r25,hi8(pxReadyTasksLists+18)
 432 0338 0E94 0000 		call vListInitialise
 433 033c 80E0      		ldi r24,lo8(pxReadyTasksLists+27)
 434 033e 90E0      		ldi r25,hi8(pxReadyTasksLists+27)
 435 0340 0E94 0000 		call vListInitialise
 436 0344 80E0      		ldi r24,lo8(xDelayedTaskList1)
 437 0346 90E0      		ldi r25,hi8(xDelayedTaskList1)
 438 0348 0E94 0000 		call vListInitialise
 439 034c 80E0      		ldi r24,lo8(xDelayedTaskList2)
 440 034e 90E0      		ldi r25,hi8(xDelayedTaskList2)
 441 0350 0E94 0000 		call vListInitialise
 442 0354 80E0      		ldi r24,lo8(xPendingReadyList)
 443 0356 90E0      		ldi r25,hi8(xPendingReadyList)
 444 0358 0E94 0000 		call vListInitialise
 445 035c 80E0      		ldi r24,lo8(xTasksWaitingTermination)
 446 035e 90E0      		ldi r25,hi8(xTasksWaitingTermination)
 447 0360 0E94 0000 		call vListInitialise
 448 0364 80E0      		ldi r24,lo8(xDelayedTaskList1)
 449 0366 90E0      		ldi r25,hi8(xDelayedTaskList1)
 450 0368 9093 0000 		sts pxDelayedTaskList+1,r25
 451 036c 8093 0000 		sts pxDelayedTaskList,r24
 452 0370 80E0      		ldi r24,lo8(xDelayedTaskList2)
 453 0372 90E0      		ldi r25,hi8(xDelayedTaskList2)
 454 0374 9093 0000 		sts pxOverflowDelayedTaskList+1,r25
 455 0378 8093 0000 		sts pxOverflowDelayedTaskList,r24
 456 037c 00C0      		rjmp .L24
 457               	.L32:
 458 037e 0E94 0000 		call vPortYield
 459 0382 81E0      		ldi r24,lo8(1)
 460 0384 00C0      		rjmp .L14
 461               	.L27:
 462 0386 81E0      		ldi r24,lo8(1)
 463 0388 00C0      		rjmp .L14
 465               	.global	vTaskDelete
 467               	vTaskDelete:
 468 038a 0F93      		push r16
 469 038c 1F93      		push r17
 470 038e CF93      		push r28
 471 0390 DF93      		push r29
 472               	/* prologue: function */
 473               	/* frame size = 0 */
 474               	/* stack size = 4 */
 475               	.L__stack_usage = 4
 476 0392 C82F      		mov r28,r24
 477 0394 D92F      		mov r29,r25
 478               	/* #APP */
 479               	 ;  1116 "FreeRTOS\tasks.c" 1
 480 0396 0FB6      		in		__tmp_reg__, __SREG__
 481               	 ;  0 "" 2
 482               	 ;  1116 "FreeRTOS\tasks.c" 1
 483 0398 F894      		cli
 484               	 ;  0 "" 2
 485               	 ;  1116 "FreeRTOS\tasks.c" 1
 486 039a 0F92      		push	__tmp_reg__
 487               	 ;  0 "" 2
 488               	/* #NOAPP */
 489 039c 2097      		sbiw r28,0
 490 039e 01F4      		brne .+2
 491 03a0 00C0      		rjmp .L40
 492               	.L34:
 493 03a2 8E01      		movw r16,r28
 494 03a4 0E5F      		subi r16,-2
 495 03a6 1F4F      		sbci r17,-1
 496 03a8 C801      		movw r24,r16
 497 03aa 0E94 0000 		call uxListRemove
 498 03ae 8C89      		ldd r24,Y+20
 499 03b0 9D89      		ldd r25,Y+21
 500 03b2 892B      		or r24,r25
 501 03b4 01F0      		breq .L35
 502 03b6 CE01      		movw r24,r28
 503 03b8 0C96      		adiw r24,12
 504 03ba 0E94 0000 		call uxListRemove
 505               	.L35:
 506 03be 8091 0000 		lds r24,uxTaskNumber
 507 03c2 8F5F      		subi r24,lo8(-(1))
 508 03c4 8093 0000 		sts uxTaskNumber,r24
 509 03c8 8091 0000 		lds r24,pxCurrentTCB
 510 03cc 9091 0000 		lds r25,pxCurrentTCB+1
 511 03d0 8C17      		cp r24,r28
 512 03d2 9D07      		cpc r25,r29
 513 03d4 01F0      		breq .L41
 514 03d6 8091 0000 		lds r24,uxCurrentNumberOfTasks
 515 03da 8150      		subi r24,lo8(-(-1))
 516 03dc 8093 0000 		sts uxCurrentNumberOfTasks,r24
 517 03e0 0E94 0000 		call prvResetNextTaskUnblockTime
 518               	.L37:
 519               	/* #APP */
 520               	 ;  1183 "FreeRTOS\tasks.c" 1
 521 03e4 0F90      		pop		__tmp_reg__
 522               	 ;  0 "" 2
 523               	 ;  1183 "FreeRTOS\tasks.c" 1
 524 03e6 0FBE      		out		__SREG__, __tmp_reg__
 525               	 ;  0 "" 2
 526               	/* #NOAPP */
 527 03e8 8091 0000 		lds r24,pxCurrentTCB
 528 03ec 9091 0000 		lds r25,pxCurrentTCB+1
 529 03f0 8C17      		cp r24,r28
 530 03f2 9D07      		cpc r25,r29
 531 03f4 01F0      		breq .L38
 532 03f6 8F89      		ldd r24,Y+23
 533 03f8 988D      		ldd r25,Y+24
 534 03fa 0E94 0000 		call vPortFree
 535 03fe CE01      		movw r24,r28
 536 0400 0E94 0000 		call vPortFree
 537               	.L38:
 538 0404 8091 0000 		lds r24,xSchedulerRunning
 539 0408 8823      		tst r24
 540 040a 01F0      		breq .L33
 541 040c 8091 0000 		lds r24,pxCurrentTCB
 542 0410 9091 0000 		lds r25,pxCurrentTCB+1
 543 0414 8C17      		cp r24,r28
 544 0416 9D07      		cpc r25,r29
 545 0418 01F0      		breq .L42
 546               	.L33:
 547               	/* epilogue start */
 548 041a DF91      		pop r29
 549 041c CF91      		pop r28
 550 041e 1F91      		pop r17
 551 0420 0F91      		pop r16
 552 0422 0895      		ret
 553               	.L40:
 554 0424 C091 0000 		lds r28,pxCurrentTCB
 555 0428 D091 0000 		lds r29,pxCurrentTCB+1
 556 042c 00C0      		rjmp .L34
 557               	.L41:
 558 042e B801      		movw r22,r16
 559 0430 80E0      		ldi r24,lo8(xTasksWaitingTermination)
 560 0432 90E0      		ldi r25,hi8(xTasksWaitingTermination)
 561 0434 0E94 0000 		call vListInsertEnd
 562 0438 8091 0000 		lds r24,uxDeletedTasksWaitingCleanUp
 563 043c 8F5F      		subi r24,lo8(-(1))
 564 043e 8093 0000 		sts uxDeletedTasksWaitingCleanUp,r24
 565 0442 00C0      		rjmp .L37
 566               	.L42:
 567 0444 0E94 0000 		call vPortYield
 568 0448 00C0      		rjmp .L33
 570               		.section	.rodata.str1.1,"aMS",@progbits,1
 571               	.LC0:
 572 0000 4944 4C45 		.string	"IDLE"
 572      00
 573               		.text
 574               	.global	vTaskStartScheduler
 576               	vTaskStartScheduler:
 577 044a EF92      		push r14
 578 044c FF92      		push r15
 579 044e 0F93      		push r16
 580               	/* prologue: function */
 581               	/* frame size = 0 */
 582               	/* stack size = 3 */
 583               	.L__stack_usage = 3
 584 0450 0F2E      		mov __tmp_reg__,r31
 585 0452 F0E0      		ldi r31,lo8(xIdleTaskHandle)
 586 0454 EF2E      		mov r14,r31
 587 0456 F0E0      		ldi r31,hi8(xIdleTaskHandle)
 588 0458 FF2E      		mov r15,r31
 589 045a F02D      		mov r31,__tmp_reg__
 590 045c 00E0      		ldi r16,0
 591 045e 20E0      		ldi r18,0
 592 0460 30E0      		ldi r19,0
 593 0462 45E5      		ldi r20,lo8(85)
 594 0464 50E0      		ldi r21,0
 595 0466 60E0      		ldi r22,lo8(.LC0)
 596 0468 70E0      		ldi r23,hi8(.LC0)
 597 046a 80E0      		ldi r24,lo8(gs(prvIdleTask))
 598 046c 90E0      		ldi r25,hi8(gs(prvIdleTask))
 599 046e 0E94 0000 		call xTaskCreate
 600 0472 8130      		cpi r24,lo8(1)
 601 0474 01F0      		breq .L45
 602               	.L44:
 603 0476 8091 0000 		lds r24,uxTopUsedPriority
 604               	/* epilogue start */
 605 047a 0F91      		pop r16
 606 047c FF90      		pop r15
 607 047e EF90      		pop r14
 608 0480 0895      		ret
 609               	.L45:
 610               	/* #APP */
 611               	 ;  2026 "FreeRTOS\tasks.c" 1
 612 0482 F894      		cli
 613               	 ;  0 "" 2
 614               	/* #NOAPP */
 615 0484 8FEF      		ldi r24,lo8(-1)
 616 0486 9FEF      		ldi r25,lo8(-1)
 617 0488 9093 0000 		sts xNextTaskUnblockTime+1,r25
 618 048c 8093 0000 		sts xNextTaskUnblockTime,r24
 619 0490 81E0      		ldi r24,lo8(1)
 620 0492 8093 0000 		sts xSchedulerRunning,r24
 621 0496 1092 0000 		sts xTickCount+1,__zero_reg__
 622 049a 1092 0000 		sts xTickCount,__zero_reg__
 623 049e 0E94 0000 		call xPortStartScheduler
 624 04a2 00C0      		rjmp .L44
 626               	.global	vTaskEndScheduler
 628               	vTaskEndScheduler:
 629               	/* prologue: function */
 630               	/* frame size = 0 */
 631               	/* stack size = 0 */
 632               	.L__stack_usage = 0
 633               	/* #APP */
 634               	 ;  2084 "FreeRTOS\tasks.c" 1
 635 04a4 F894      		cli
 636               	 ;  0 "" 2
 637               	/* #NOAPP */
 638 04a6 1092 0000 		sts xSchedulerRunning,__zero_reg__
 639 04aa 0E94 0000 		call vPortEndScheduler
 640               	/* epilogue start */
 641 04ae 0895      		ret
 643               	.global	vTaskSuspendAll
 645               	vTaskSuspendAll:
 646               	/* prologue: function */
 647               	/* frame size = 0 */
 648               	/* stack size = 0 */
 649               	.L__stack_usage = 0
 650 04b0 8091 0000 		lds r24,uxSchedulerSuspended
 651 04b4 8F5F      		subi r24,lo8(-(1))
 652 04b6 8093 0000 		sts uxSchedulerSuspended,r24
 653               	/* epilogue start */
 654 04ba 0895      		ret
 656               	.global	xTaskGetTickCount
 658               	xTaskGetTickCount:
 659               	/* prologue: function */
 660               	/* frame size = 0 */
 661               	/* stack size = 0 */
 662               	.L__stack_usage = 0
 663               	/* #APP */
 664               	 ;  2291 "FreeRTOS\tasks.c" 1
 665 04bc 0FB6      		in		__tmp_reg__, __SREG__
 666               	 ;  0 "" 2
 667               	 ;  2291 "FreeRTOS\tasks.c" 1
 668 04be F894      		cli
 669               	 ;  0 "" 2
 670               	 ;  2291 "FreeRTOS\tasks.c" 1
 671 04c0 0F92      		push	__tmp_reg__
 672               	 ;  0 "" 2
 673               	/* #NOAPP */
 674 04c2 8091 0000 		lds r24,xTickCount
 675 04c6 9091 0000 		lds r25,xTickCount+1
 676               	/* #APP */
 677               	 ;  2295 "FreeRTOS\tasks.c" 1
 678 04ca 0F90      		pop		__tmp_reg__
 679               	 ;  0 "" 2
 680               	 ;  2295 "FreeRTOS\tasks.c" 1
 681 04cc 0FBE      		out		__SREG__, __tmp_reg__
 682               	 ;  0 "" 2
 683               	/* #NOAPP */
 684               	/* epilogue start */
 685 04ce 0895      		ret
 687               	.global	xTaskGetTickCountFromISR
 689               	xTaskGetTickCountFromISR:
 690               	/* prologue: function */
 691               	/* frame size = 0 */
 692               	/* stack size = 0 */
 693               	.L__stack_usage = 0
 694 04d0 8091 0000 		lds r24,xTickCount
 695 04d4 9091 0000 		lds r25,xTickCount+1
 696               	/* epilogue start */
 697 04d8 0895      		ret
 699               	.global	uxTaskGetNumberOfTasks
 701               	uxTaskGetNumberOfTasks:
 702               	/* prologue: function */
 703               	/* frame size = 0 */
 704               	/* stack size = 0 */
 705               	.L__stack_usage = 0
 706 04da 8091 0000 		lds r24,uxCurrentNumberOfTasks
 707               	/* epilogue start */
 708 04de 0895      		ret
 710               	.global	pcTaskGetName
 712               	pcTaskGetName:
 713               	/* prologue: function */
 714               	/* frame size = 0 */
 715               	/* stack size = 0 */
 716               	.L__stack_usage = 0
 717 04e0 282F      		mov r18,r24
 718 04e2 392F      		mov r19,r25
 719 04e4 2115      		cp r18,__zero_reg__
 720 04e6 3105      		cpc r19,__zero_reg__
 721 04e8 01F0      		breq .L53
 722               	.L52:
 723 04ea C901      		movw r24,r18
 724 04ec 4996      		adiw r24,25
 725               	/* epilogue start */
 726 04ee 0895      		ret
 727               	.L53:
 728 04f0 2091 0000 		lds r18,pxCurrentTCB
 729 04f4 3091 0000 		lds r19,pxCurrentTCB+1
 730 04f8 00C0      		rjmp .L52
 732               	.global	xTaskIncrementTick
 734               	xTaskIncrementTick:
 735 04fa 0F93      		push r16
 736 04fc 1F93      		push r17
 737 04fe CF93      		push r28
 738 0500 DF93      		push r29
 739               	/* prologue: function */
 740               	/* frame size = 0 */
 741               	/* stack size = 4 */
 742               	.L__stack_usage = 4
 743 0502 8091 0000 		lds r24,uxSchedulerSuspended
 744 0506 8111      		cpse r24,__zero_reg__
 745 0508 00C0      		rjmp .L55
 746 050a C091 0000 		lds r28,xTickCount
 747 050e D091 0000 		lds r29,xTickCount+1
 748 0512 8E01      		movw r16,r28
 749 0514 0F5F      		subi r16,-1
 750 0516 1F4F      		sbci r17,-1
 751 0518 1093 0000 		sts xTickCount+1,r17
 752 051c 0093 0000 		sts xTickCount,r16
 753 0520 0115      		cp r16,__zero_reg__
 754 0522 1105      		cpc r17,__zero_reg__
 755 0524 01F0      		breq .L75
 756               	.L56:
 757 0526 8091 0000 		lds r24,xNextTaskUnblockTime
 758 052a 9091 0000 		lds r25,xNextTaskUnblockTime+1
 759 052e 0817      		cp r16,r24
 760 0530 1907      		cpc r17,r25
 761 0532 00F4      		brsh .+2
 762 0534 00C0      		rjmp .L69
 763 0536 E091 0000 		lds r30,pxDelayedTaskList
 764 053a F091 0000 		lds r31,pxDelayedTaskList+1
 765 053e 8081      		ld r24,Z
 766 0540 8823      		tst r24
 767 0542 01F0      		breq .L70
 768 0544 80E0      		ldi r24,0
 769 0546 91E0      		ldi r25,lo8(1)
 770 0548 00C0      		rjmp .L59
 771               	.L75:
 772 054a 8091 0000 		lds r24,pxDelayedTaskList
 773 054e 9091 0000 		lds r25,pxDelayedTaskList+1
 774 0552 2091 0000 		lds r18,pxOverflowDelayedTaskList
 775 0556 3091 0000 		lds r19,pxOverflowDelayedTaskList+1
 776 055a 3093 0000 		sts pxDelayedTaskList+1,r19
 777 055e 2093 0000 		sts pxDelayedTaskList,r18
 778 0562 9093 0000 		sts pxOverflowDelayedTaskList+1,r25
 779 0566 8093 0000 		sts pxOverflowDelayedTaskList,r24
 780 056a 8091 0000 		lds r24,xNumOfOverflows
 781 056e 8F5F      		subi r24,lo8(-(1))
 782 0570 8093 0000 		sts xNumOfOverflows,r24
 783 0574 0E94 0000 		call prvResetNextTaskUnblockTime
 784 0578 00C0      		rjmp .L56
 785               	.L70:
 786 057a 80E0      		ldi r24,0
 787               	.L58:
 788 057c 2FEF      		ldi r18,lo8(-1)
 789 057e 3FEF      		ldi r19,lo8(-1)
 790 0580 3093 0000 		sts xNextTaskUnblockTime+1,r19
 791 0584 2093 0000 		sts xNextTaskUnblockTime,r18
 792 0588 00C0      		rjmp .L57
 793               	.L76:
 794 058a 3093 0000 		sts xNextTaskUnblockTime+1,r19
 795 058e 2093 0000 		sts xNextTaskUnblockTime,r18
 796 0592 00C0      		rjmp .L57
 797               	.L77:
 798 0594 2681      		ldd r18,Z+6
 799 0596 3781      		ldd r19,Z+7
 800 0598 1296      		adiw r26,1+1
 801 059a 3C93      		st X,r19
 802 059c 2E93      		st -X,r18
 803 059e 1197      		sbiw r26,1
 804 05a0 00C0      		rjmp .L61
 805               	.L63:
 806 05a2 158A      		std Z+21,__zero_reg__
 807 05a4 148A      		std Z+20,__zero_reg__
 808 05a6 2C91      		ld r18,X
 809 05a8 2150      		subi r18,lo8(-(-1))
 810 05aa 2C93      		st X,r18
 811               	.L62:
 812 05ac 2689      		ldd r18,Z+22
 813 05ae 3091 0000 		lds r19,uxTopReadyPriority
 814 05b2 3217      		cp r19,r18
 815 05b4 00F4      		brsh .L64
 816 05b6 2093 0000 		sts uxTopReadyPriority,r18
 817               	.L64:
 818 05ba 30E0      		ldi r19,0
 819 05bc D901      		movw r26,r18
 820 05be AA0F      		lsl r26
 821 05c0 BB1F      		rol r27
 822 05c2 AA0F      		lsl r26
 823 05c4 BB1F      		rol r27
 824 05c6 AA0F      		lsl r26
 825 05c8 BB1F      		rol r27
 826 05ca A20F      		add r26,r18
 827 05cc B31F      		adc r27,r19
 828 05ce A050      		subi r26,lo8(-(pxReadyTasksLists))
 829 05d0 B040      		sbci r27,hi8(-(pxReadyTasksLists))
 830 05d2 1196      		adiw r26,1
 831 05d4 0D90      		ld __tmp_reg__,X+
 832 05d6 BC91      		ld r27,X
 833 05d8 A02D      		mov r26,__tmp_reg__
 834 05da B583      		std Z+5,r27
 835 05dc A483      		std Z+4,r26
 836 05de 1496      		adiw r26,4
 837 05e0 2D91      		ld r18,X+
 838 05e2 3C91      		ld r19,X
 839 05e4 1597      		sbiw r26,4+1
 840 05e6 3783      		std Z+7,r19
 841 05e8 2683      		std Z+6,r18
 842 05ea 1496      		adiw r26,4
 843 05ec 2D91      		ld r18,X+
 844 05ee 3C91      		ld r19,X
 845 05f0 1597      		sbiw r26,4+1
 846 05f2 E901      		movw r28,r18
 847 05f4 5B83      		std Y+3,r21
 848 05f6 4A83      		std Y+2,r20
 849 05f8 1596      		adiw r26,4+1
 850 05fa 5C93      		st X,r21
 851 05fc 4E93      		st -X,r20
 852 05fe 1497      		sbiw r26,4
 853 0600 2689      		ldd r18,Z+22
 854 0602 30E0      		ldi r19,0
 855 0604 D901      		movw r26,r18
 856 0606 AA0F      		lsl r26
 857 0608 BB1F      		rol r27
 858 060a AA0F      		lsl r26
 859 060c BB1F      		rol r27
 860 060e AA0F      		lsl r26
 861 0610 BB1F      		rol r27
 862 0612 A20F      		add r26,r18
 863 0614 B31F      		adc r27,r19
 864 0616 A050      		subi r26,lo8(-(pxReadyTasksLists))
 865 0618 B040      		sbci r27,hi8(-(pxReadyTasksLists))
 866 061a B387      		std Z+11,r27
 867 061c A287      		std Z+10,r26
 868 061e 2C91      		ld r18,X
 869 0620 2F5F      		subi r18,lo8(-(1))
 870 0622 2C93      		st X,r18
 871 0624 A091 0000 		lds r26,pxCurrentTCB
 872 0628 B091 0000 		lds r27,pxCurrentTCB+1
 873 062c 3689      		ldd r19,Z+22
 874 062e 5696      		adiw r26,22
 875 0630 2C91      		ld r18,X
 876 0632 2317      		cp r18,r19
 877 0634 00F4      		brsh .L65
 878 0636 892F      		mov r24,r25
 879               	.L65:
 880 0638 E091 0000 		lds r30,pxDelayedTaskList
 881 063c F091 0000 		lds r31,pxDelayedTaskList+1
 882 0640 2081      		ld r18,Z
 883 0642 2223      		tst r18
 884 0644 01F4      		brne .+2
 885 0646 00C0      		rjmp .L58
 886               	.L59:
 887 0648 E091 0000 		lds r30,pxDelayedTaskList
 888 064c F091 0000 		lds r31,pxDelayedTaskList+1
 889 0650 0580      		ldd __tmp_reg__,Z+5
 890 0652 F681      		ldd r31,Z+6
 891 0654 E02D      		mov r30,__tmp_reg__
 892 0656 0680      		ldd __tmp_reg__,Z+6
 893 0658 F781      		ldd r31,Z+7
 894 065a E02D      		mov r30,__tmp_reg__
 895 065c 2281      		ldd r18,Z+2
 896 065e 3381      		ldd r19,Z+3
 897 0660 0217      		cp r16,r18
 898 0662 1307      		cpc r17,r19
 899 0664 00F4      		brsh .+2
 900 0666 00C0      		rjmp .L76
 901 0668 A285      		ldd r26,Z+10
 902 066a B385      		ldd r27,Z+11
 903 066c 2481      		ldd r18,Z+4
 904 066e 3581      		ldd r19,Z+5
 905 0670 4681      		ldd r20,Z+6
 906 0672 5781      		ldd r21,Z+7
 907 0674 E901      		movw r28,r18
 908 0676 5D83      		std Y+5,r21
 909 0678 4C83      		std Y+4,r20
 910 067a 2681      		ldd r18,Z+6
 911 067c 3781      		ldd r19,Z+7
 912 067e 4481      		ldd r20,Z+4
 913 0680 5581      		ldd r21,Z+5
 914 0682 E901      		movw r28,r18
 915 0684 5B83      		std Y+3,r21
 916 0686 4A83      		std Y+2,r20
 917 0688 AF01      		movw r20,r30
 918 068a 4E5F      		subi r20,-2
 919 068c 5F4F      		sbci r21,-1
 920 068e 1196      		adiw r26,1
 921 0690 2D91      		ld r18,X+
 922 0692 3C91      		ld r19,X
 923 0694 1297      		sbiw r26,1+1
 924 0696 2417      		cp r18,r20
 925 0698 3507      		cpc r19,r21
 926 069a 01F4      		brne .+2
 927 069c 00C0      		rjmp .L77
 928               	.L61:
 929 069e 1386      		std Z+11,__zero_reg__
 930 06a0 1286      		std Z+10,__zero_reg__
 931 06a2 2C91      		ld r18,X
 932 06a4 2150      		subi r18,lo8(-(-1))
 933 06a6 2C93      		st X,r18
 934 06a8 A489      		ldd r26,Z+20
 935 06aa B589      		ldd r27,Z+21
 936 06ac 1097      		sbiw r26,0
 937 06ae 01F4      		brne .+2
 938 06b0 00C0      		rjmp .L62
 939 06b2 2685      		ldd r18,Z+14
 940 06b4 3785      		ldd r19,Z+15
 941 06b6 6089      		ldd r22,Z+16
 942 06b8 7189      		ldd r23,Z+17
 943 06ba E901      		movw r28,r18
 944 06bc 7D83      		std Y+5,r23
 945 06be 6C83      		std Y+4,r22
 946 06c0 2089      		ldd r18,Z+16
 947 06c2 3189      		ldd r19,Z+17
 948 06c4 6685      		ldd r22,Z+14
 949 06c6 7785      		ldd r23,Z+15
 950 06c8 E901      		movw r28,r18
 951 06ca 7B83      		std Y+3,r23
 952 06cc 6A83      		std Y+2,r22
 953 06ce 1196      		adiw r26,1
 954 06d0 6D91      		ld r22,X+
 955 06d2 7C91      		ld r23,X
 956 06d4 1297      		sbiw r26,1+1
 957 06d6 9F01      		movw r18,r30
 958 06d8 245F      		subi r18,-12
 959 06da 3F4F      		sbci r19,-1
 960 06dc 6217      		cp r22,r18
 961 06de 7307      		cpc r23,r19
 962 06e0 01F0      		breq .+2
 963 06e2 00C0      		rjmp .L63
 964 06e4 2089      		ldd r18,Z+16
 965 06e6 3189      		ldd r19,Z+17
 966 06e8 1296      		adiw r26,1+1
 967 06ea 3C93      		st X,r19
 968 06ec 2E93      		st -X,r18
 969 06ee 1197      		sbiw r26,1
 970 06f0 00C0      		rjmp .L63
 971               	.L69:
 972 06f2 80E0      		ldi r24,0
 973               	.L57:
 974 06f4 E091 0000 		lds r30,pxCurrentTCB
 975 06f8 F091 0000 		lds r31,pxCurrentTCB+1
 976 06fc 2689      		ldd r18,Z+22
 977 06fe 30E0      		ldi r19,0
 978 0700 F901      		movw r30,r18
 979 0702 EE0F      		lsl r30
 980 0704 FF1F      		rol r31
 981 0706 EE0F      		lsl r30
 982 0708 FF1F      		rol r31
 983 070a EE0F      		lsl r30
 984 070c FF1F      		rol r31
 985 070e E20F      		add r30,r18
 986 0710 F31F      		adc r31,r19
 987 0712 E050      		subi r30,lo8(-(pxReadyTasksLists))
 988 0714 F040      		sbci r31,hi8(-(pxReadyTasksLists))
 989 0716 9081      		ld r25,Z
 990 0718 9230      		cpi r25,lo8(2)
 991 071a 00F0      		brlo .L67
 992 071c 81E0      		ldi r24,lo8(1)
 993               	.L67:
 994 071e 9091 0000 		lds r25,xYieldPending
 995 0722 9923      		tst r25
 996 0724 01F0      		breq .L54
 997 0726 81E0      		ldi r24,lo8(1)
 998 0728 00C0      		rjmp .L54
 999               	.L55:
 1000 072a 8091 0000 		lds r24,xPendedTicks
 1001 072e 9091 0000 		lds r25,xPendedTicks+1
 1002 0732 0196      		adiw r24,1
 1003 0734 9093 0000 		sts xPendedTicks+1,r25
 1004 0738 8093 0000 		sts xPendedTicks,r24
 1005 073c 80E0      		ldi r24,0
 1006               	.L54:
 1007               	/* epilogue start */
 1008 073e DF91      		pop r29
 1009 0740 CF91      		pop r28
 1010 0742 1F91      		pop r17
 1011 0744 0F91      		pop r16
 1012 0746 0895      		ret
 1014               	.global	xTaskResumeAll
 1016               	xTaskResumeAll:
 1017 0748 1F93      		push r17
 1018 074a CF93      		push r28
 1019 074c DF93      		push r29
 1020               	/* prologue: function */
 1021               	/* frame size = 0 */
 1022               	/* stack size = 3 */
 1023               	.L__stack_usage = 3
 1024               	/* #APP */
 1025               	 ;  2188 "FreeRTOS\tasks.c" 1
 1026 074e 0FB6      		in		__tmp_reg__, __SREG__
 1027               	 ;  0 "" 2
 1028               	 ;  2188 "FreeRTOS\tasks.c" 1
 1029 0750 F894      		cli
 1030               	 ;  0 "" 2
 1031               	 ;  2188 "FreeRTOS\tasks.c" 1
 1032 0752 0F92      		push	__tmp_reg__
 1033               	 ;  0 "" 2
 1034               	/* #NOAPP */
 1035 0754 8091 0000 		lds r24,uxSchedulerSuspended
 1036 0758 8150      		subi r24,lo8(-(-1))
 1037 075a 8093 0000 		sts uxSchedulerSuspended,r24
 1038 075e 8091 0000 		lds r24,uxSchedulerSuspended
 1039 0762 8111      		cpse r24,__zero_reg__
 1040 0764 00C0      		rjmp .L89
 1041 0766 8091 0000 		lds r24,uxCurrentNumberOfTasks
 1042 076a 8823      		tst r24
 1043 076c 01F4      		brne .+2
 1044 076e 00C0      		rjmp .L90
 1045 0770 8091 0000 		lds r24,xPendingReadyList
 1046 0774 8823      		tst r24
 1047 0776 01F4      		brne .+2
 1048 0778 00C0      		rjmp .L80
 1049 077a 60E0      		ldi r22,lo8(xPendingReadyList)
 1050 077c 70E0      		ldi r23,hi8(xPendingReadyList)
 1051 077e 21E0      		ldi r18,lo8(1)
 1052 0780 00C0      		rjmp .L85
 1053               	.L94:
 1054 0782 8089      		ldd r24,Z+16
 1055 0784 9189      		ldd r25,Z+17
 1056 0786 1296      		adiw r26,1+1
 1057 0788 9C93      		st X,r25
 1058 078a 8E93      		st -X,r24
 1059 078c 1197      		sbiw r26,1
 1060 078e 00C0      		rjmp .L81
 1061               	.L95:
 1062 0790 8681      		ldd r24,Z+6
 1063 0792 9781      		ldd r25,Z+7
 1064 0794 1296      		adiw r26,1+1
 1065 0796 9C93      		st X,r25
 1066 0798 8E93      		st -X,r24
 1067 079a 1197      		sbiw r26,1
 1068 079c 00C0      		rjmp .L82
 1069               	.L84:
 1070 079e DB01      		movw r26,r22
 1071 07a0 8C91      		ld r24,X
 1072 07a2 8823      		tst r24
 1073 07a4 01F4      		brne .+2
 1074 07a6 00C0      		rjmp .L93
 1075               	.L85:
 1076 07a8 DB01      		movw r26,r22
 1077 07aa 1596      		adiw r26,5
 1078 07ac ED91      		ld r30,X+
 1079 07ae FC91      		ld r31,X
 1080 07b0 0680      		ldd __tmp_reg__,Z+6
 1081 07b2 F781      		ldd r31,Z+7
 1082 07b4 E02D      		mov r30,__tmp_reg__
 1083 07b6 A489      		ldd r26,Z+20
 1084 07b8 B589      		ldd r27,Z+21
 1085 07ba 8685      		ldd r24,Z+14
 1086 07bc 9785      		ldd r25,Z+15
 1087 07be 4089      		ldd r20,Z+16
 1088 07c0 5189      		ldd r21,Z+17
 1089 07c2 EC01      		movw r28,r24
 1090 07c4 5D83      		std Y+5,r21
 1091 07c6 4C83      		std Y+4,r20
 1092 07c8 8089      		ldd r24,Z+16
 1093 07ca 9189      		ldd r25,Z+17
 1094 07cc 4685      		ldd r20,Z+14
 1095 07ce 5785      		ldd r21,Z+15
 1096 07d0 EC01      		movw r28,r24
 1097 07d2 5B83      		std Y+3,r21
 1098 07d4 4A83      		std Y+2,r20
 1099 07d6 CF01      		movw r24,r30
 1100 07d8 0C96      		adiw r24,12
 1101 07da 1196      		adiw r26,1
 1102 07dc 4D91      		ld r20,X+
 1103 07de 5C91      		ld r21,X
 1104 07e0 1297      		sbiw r26,1+1
 1105 07e2 4817      		cp r20,r24
 1106 07e4 5907      		cpc r21,r25
 1107 07e6 01F0      		breq .L94
 1108               	.L81:
 1109 07e8 158A      		std Z+21,__zero_reg__
 1110 07ea 148A      		std Z+20,__zero_reg__
 1111 07ec 8C91      		ld r24,X
 1112 07ee 8150      		subi r24,lo8(-(-1))
 1113 07f0 8C93      		st X,r24
 1114 07f2 A285      		ldd r26,Z+10
 1115 07f4 B385      		ldd r27,Z+11
 1116 07f6 8481      		ldd r24,Z+4
 1117 07f8 9581      		ldd r25,Z+5
 1118 07fa 4681      		ldd r20,Z+6
 1119 07fc 5781      		ldd r21,Z+7
 1120 07fe EC01      		movw r28,r24
 1121 0800 5D83      		std Y+5,r21
 1122 0802 4C83      		std Y+4,r20
 1123 0804 8681      		ldd r24,Z+6
 1124 0806 9781      		ldd r25,Z+7
 1125 0808 4481      		ldd r20,Z+4
 1126 080a 5581      		ldd r21,Z+5
 1127 080c EC01      		movw r28,r24
 1128 080e 5B83      		std Y+3,r21
 1129 0810 4A83      		std Y+2,r20
 1130 0812 AF01      		movw r20,r30
 1131 0814 4E5F      		subi r20,-2
 1132 0816 5F4F      		sbci r21,-1
 1133 0818 1196      		adiw r26,1
 1134 081a 8D91      		ld r24,X+
 1135 081c 9C91      		ld r25,X
 1136 081e 1297      		sbiw r26,1+1
 1137 0820 8417      		cp r24,r20
 1138 0822 9507      		cpc r25,r21
 1139 0824 01F4      		brne .+2
 1140 0826 00C0      		rjmp .L95
 1141               	.L82:
 1142 0828 1386      		std Z+11,__zero_reg__
 1143 082a 1286      		std Z+10,__zero_reg__
 1144 082c 8C91      		ld r24,X
 1145 082e 8150      		subi r24,lo8(-(-1))
 1146 0830 8C93      		st X,r24
 1147 0832 8689      		ldd r24,Z+22
 1148 0834 9091 0000 		lds r25,uxTopReadyPriority
 1149 0838 9817      		cp r25,r24
 1150 083a 00F4      		brsh .L83
 1151 083c 8093 0000 		sts uxTopReadyPriority,r24
 1152               	.L83:
 1153 0840 90E0      		ldi r25,0
 1154 0842 DC01      		movw r26,r24
 1155 0844 AA0F      		lsl r26
 1156 0846 BB1F      		rol r27
 1157 0848 AA0F      		lsl r26
 1158 084a BB1F      		rol r27
 1159 084c AA0F      		lsl r26
 1160 084e BB1F      		rol r27
 1161 0850 A80F      		add r26,r24
 1162 0852 B91F      		adc r27,r25
 1163 0854 A050      		subi r26,lo8(-(pxReadyTasksLists))
 1164 0856 B040      		sbci r27,hi8(-(pxReadyTasksLists))
 1165 0858 1196      		adiw r26,1
 1166 085a 0D90      		ld __tmp_reg__,X+
 1167 085c BC91      		ld r27,X
 1168 085e A02D      		mov r26,__tmp_reg__
 1169 0860 B583      		std Z+5,r27
 1170 0862 A483      		std Z+4,r26
 1171 0864 1496      		adiw r26,4
 1172 0866 8D91      		ld r24,X+
 1173 0868 9C91      		ld r25,X
 1174 086a 1597      		sbiw r26,4+1
 1175 086c 9783      		std Z+7,r25
 1176 086e 8683      		std Z+6,r24
 1177 0870 1496      		adiw r26,4
 1178 0872 8D91      		ld r24,X+
 1179 0874 9C91      		ld r25,X
 1180 0876 1597      		sbiw r26,4+1
 1181 0878 EC01      		movw r28,r24
 1182 087a 5B83      		std Y+3,r21
 1183 087c 4A83      		std Y+2,r20
 1184 087e 1596      		adiw r26,4+1
 1185 0880 5C93      		st X,r21
 1186 0882 4E93      		st -X,r20
 1187 0884 1497      		sbiw r26,4
 1188 0886 8689      		ldd r24,Z+22
 1189 0888 90E0      		ldi r25,0
 1190 088a DC01      		movw r26,r24
 1191 088c AA0F      		lsl r26
 1192 088e BB1F      		rol r27
 1193 0890 AA0F      		lsl r26
 1194 0892 BB1F      		rol r27
 1195 0894 AA0F      		lsl r26
 1196 0896 BB1F      		rol r27
 1197 0898 A80F      		add r26,r24
 1198 089a B91F      		adc r27,r25
 1199 089c A050      		subi r26,lo8(-(pxReadyTasksLists))
 1200 089e B040      		sbci r27,hi8(-(pxReadyTasksLists))
 1201 08a0 B387      		std Z+11,r27
 1202 08a2 A287      		std Z+10,r26
 1203 08a4 8C91      		ld r24,X
 1204 08a6 8F5F      		subi r24,lo8(-(1))
 1205 08a8 8C93      		st X,r24
 1206 08aa A091 0000 		lds r26,pxCurrentTCB
 1207 08ae B091 0000 		lds r27,pxCurrentTCB+1
 1208 08b2 9689      		ldd r25,Z+22
 1209 08b4 5696      		adiw r26,22
 1210 08b6 8C91      		ld r24,X
 1211 08b8 9817      		cp r25,r24
 1212 08ba 00F4      		brsh .+2
 1213 08bc 00C0      		rjmp .L84
 1214 08be 2093 0000 		sts xYieldPending,r18
 1215 08c2 00C0      		rjmp .L84
 1216               	.L93:
 1217 08c4 EF2B      		or r30,r31
 1218 08c6 01F0      		breq .L80
 1219 08c8 0E94 0000 		call prvResetNextTaskUnblockTime
 1220               	.L80:
 1221 08cc C091 0000 		lds r28,xPendedTicks
 1222 08d0 D091 0000 		lds r29,xPendedTicks+1
 1223 08d4 2097      		sbiw r28,0
 1224 08d6 01F0      		breq .L86
 1225 08d8 11E0      		ldi r17,lo8(1)
 1226 08da 00C0      		rjmp .L88
 1227               	.L87:
 1228 08dc 2197      		sbiw r28,1
 1229 08de 2097      		sbiw r28,0
 1230 08e0 01F0      		breq .L96
 1231               	.L88:
 1232 08e2 0E94 0000 		call xTaskIncrementTick
 1233 08e6 8823      		tst r24
 1234 08e8 01F0      		breq .L87
 1235 08ea 1093 0000 		sts xYieldPending,r17
 1236 08ee 00C0      		rjmp .L87
 1237               	.L96:
 1238 08f0 1092 0000 		sts xPendedTicks+1,__zero_reg__
 1239 08f4 1092 0000 		sts xPendedTicks,__zero_reg__
 1240               	.L86:
 1241 08f8 8091 0000 		lds r24,xYieldPending
 1242 08fc 8823      		tst r24
 1243 08fe 01F0      		breq .L79
 1244 0900 0E94 0000 		call vPortYield
 1245 0904 81E0      		ldi r24,lo8(1)
 1246 0906 00C0      		rjmp .L79
 1247               	.L89:
 1248 0908 80E0      		ldi r24,0
 1249               	.L79:
 1250               	/* #APP */
 1251               	 ;  2280 "FreeRTOS\tasks.c" 1
 1252 090a 0F90      		pop		__tmp_reg__
 1253               	 ;  0 "" 2
 1254               	 ;  2280 "FreeRTOS\tasks.c" 1
 1255 090c 0FBE      		out		__SREG__, __tmp_reg__
 1256               	 ;  0 "" 2
 1257               	/* #NOAPP */
 1258               	/* epilogue start */
 1259 090e DF91      		pop r29
 1260 0910 CF91      		pop r28
 1261 0912 1F91      		pop r17
 1262 0914 0895      		ret
 1263               	.L90:
 1264 0916 80E0      		ldi r24,0
 1265 0918 00C0      		rjmp .L79
 1267               	.global	xTaskDelayUntil
 1269               	xTaskDelayUntil:
 1270 091a 0F93      		push r16
 1271 091c 1F93      		push r17
 1272 091e CF93      		push r28
 1273 0920 DF93      		push r29
 1274               	/* prologue: function */
 1275               	/* frame size = 0 */
 1276               	/* stack size = 4 */
 1277               	.L__stack_usage = 4
 1278 0922 082F      		mov r16,r24
 1279 0924 192F      		mov r17,r25
 1280 0926 C62F      		mov r28,r22
 1281 0928 D72F      		mov r29,r23
 1282 092a 0E94 0000 		call vTaskSuspendAll
 1283 092e 2091 0000 		lds r18,xTickCount
 1284 0932 3091 0000 		lds r19,xTickCount+1
 1285 0936 F801      		movw r30,r16
 1286 0938 8081      		ld r24,Z
 1287 093a 9181      		ldd r25,Z+1
 1288 093c C80F      		add r28,r24
 1289 093e D91F      		adc r29,r25
 1290 0940 2817      		cp r18,r24
 1291 0942 3907      		cpc r19,r25
 1292 0944 00F4      		brsh .L98
 1293 0946 C817      		cp r28,r24
 1294 0948 D907      		cpc r29,r25
 1295 094a 00F0      		brlo .L99
 1296 094c D183      		std Z+1,r29
 1297 094e C083      		st Z,r28
 1298 0950 C0E0      		ldi r28,0
 1299 0952 00C0      		rjmp .L100
 1300               	.L99:
 1301 0954 2C17      		cp r18,r28
 1302 0956 3D07      		cpc r19,r29
 1303 0958 00F0      		brlo .L101
 1304 095a F801      		movw r30,r16
 1305 095c D183      		std Z+1,r29
 1306 095e C083      		st Z,r28
 1307 0960 C0E0      		ldi r28,0
 1308 0962 00C0      		rjmp .L100
 1309               	.L98:
 1310 0964 C817      		cp r28,r24
 1311 0966 D907      		cpc r29,r25
 1312 0968 00F0      		brlo .L101
 1313 096a 2C17      		cp r18,r28
 1314 096c 3D07      		cpc r19,r29
 1315 096e 00F0      		brlo .L101
 1316 0970 F801      		movw r30,r16
 1317 0972 D183      		std Z+1,r29
 1318 0974 C083      		st Z,r28
 1319 0976 C0E0      		ldi r28,0
 1320 0978 00C0      		rjmp .L100
 1321               	.L101:
 1322 097a F801      		movw r30,r16
 1323 097c D183      		std Z+1,r29
 1324 097e C083      		st Z,r28
 1325 0980 60E0      		ldi r22,0
 1326 0982 CE01      		movw r24,r28
 1327 0984 821B      		sub r24,r18
 1328 0986 930B      		sbc r25,r19
 1329 0988 0E94 0000 		call prvAddCurrentTaskToDelayedList
 1330 098c C1E0      		ldi r28,lo8(1)
 1331               	.L100:
 1332 098e 0E94 0000 		call xTaskResumeAll
 1333 0992 8823      		tst r24
 1334 0994 01F0      		breq .L103
 1335               	.L97:
 1336 0996 8C2F      		mov r24,r28
 1337               	/* epilogue start */
 1338 0998 DF91      		pop r29
 1339 099a CF91      		pop r28
 1340 099c 1F91      		pop r17
 1341 099e 0F91      		pop r16
 1342 09a0 0895      		ret
 1343               	.L103:
 1344 09a2 0E94 0000 		call vPortYield
 1345 09a6 00C0      		rjmp .L97
 1347               	.global	vTaskDelay
 1349               	vTaskDelay:
 1350 09a8 CF93      		push r28
 1351 09aa DF93      		push r29
 1352               	/* prologue: function */
 1353               	/* frame size = 0 */
 1354               	/* stack size = 2 */
 1355               	.L__stack_usage = 2
 1356 09ac C82F      		mov r28,r24
 1357 09ae D92F      		mov r29,r25
 1358 09b0 2097      		sbiw r28,0
 1359 09b2 01F0      		breq .L105
 1360 09b4 0E94 0000 		call vTaskSuspendAll
 1361 09b8 60E0      		ldi r22,0
 1362 09ba CE01      		movw r24,r28
 1363 09bc 0E94 0000 		call prvAddCurrentTaskToDelayedList
 1364 09c0 0E94 0000 		call xTaskResumeAll
 1365 09c4 8111      		cpse r24,__zero_reg__
 1366 09c6 00C0      		rjmp .L104
 1367               	.L105:
 1368 09c8 0E94 0000 		call vPortYield
 1369               	.L104:
 1370               	/* epilogue start */
 1371 09cc DF91      		pop r29
 1372 09ce CF91      		pop r28
 1373 09d0 0895      		ret
 1375               	.global	xTaskCatchUpTicks
 1377               	xTaskCatchUpTicks:
 1378 09d2 CF93      		push r28
 1379 09d4 DF93      		push r29
 1380               	/* prologue: function */
 1381               	/* frame size = 0 */
 1382               	/* stack size = 2 */
 1383               	.L__stack_usage = 2
 1384 09d6 C82F      		mov r28,r24
 1385 09d8 D92F      		mov r29,r25
 1386 09da 0E94 0000 		call vTaskSuspendAll
 1387               	/* #APP */
 1388               	 ;  2629 "FreeRTOS\tasks.c" 1
 1389 09de 0FB6      		in		__tmp_reg__, __SREG__
 1390               	 ;  0 "" 2
 1391               	 ;  2629 "FreeRTOS\tasks.c" 1
 1392 09e0 F894      		cli
 1393               	 ;  0 "" 2
 1394               	 ;  2629 "FreeRTOS\tasks.c" 1
 1395 09e2 0F92      		push	__tmp_reg__
 1396               	 ;  0 "" 2
 1397               	/* #NOAPP */
 1398 09e4 8091 0000 		lds r24,xPendedTicks
 1399 09e8 9091 0000 		lds r25,xPendedTicks+1
 1400 09ec 8C0F      		add r24,r28
 1401 09ee 9D1F      		adc r25,r29
 1402 09f0 9093 0000 		sts xPendedTicks+1,r25
 1403 09f4 8093 0000 		sts xPendedTicks,r24
 1404               	/* #APP */
 1405               	 ;  2633 "FreeRTOS\tasks.c" 1
 1406 09f8 0F90      		pop		__tmp_reg__
 1407               	 ;  0 "" 2
 1408               	 ;  2633 "FreeRTOS\tasks.c" 1
 1409 09fa 0FBE      		out		__SREG__, __tmp_reg__
 1410               	 ;  0 "" 2
 1411               	/* #NOAPP */
 1412 09fc 0E94 0000 		call xTaskResumeAll
 1413               	/* epilogue start */
 1414 0a00 DF91      		pop r29
 1415 0a02 CF91      		pop r28
 1416 0a04 0895      		ret
 1418               	.global	vTaskSwitchContext
 1420               	vTaskSwitchContext:
 1421               	/* prologue: function */
 1422               	/* frame size = 0 */
 1423               	/* stack size = 0 */
 1424               	.L__stack_usage = 0
 1425 0a06 8091 0000 		lds r24,uxSchedulerSuspended
 1426 0a0a 8823      		tst r24
 1427 0a0c 01F0      		breq .L109
 1428 0a0e 81E0      		ldi r24,lo8(1)
 1429 0a10 8093 0000 		sts xYieldPending,r24
 1430 0a14 0895      		ret
 1431               	.L109:
 1432 0a16 1092 0000 		sts xYieldPending,__zero_reg__
 1433 0a1a 2091 0000 		lds r18,uxTopReadyPriority
 1434 0a1e 822F      		mov r24,r18
 1435 0a20 90E0      		ldi r25,0
 1436 0a22 FC01      		movw r30,r24
 1437 0a24 EE0F      		lsl r30
 1438 0a26 FF1F      		rol r31
 1439 0a28 EE0F      		lsl r30
 1440 0a2a FF1F      		rol r31
 1441 0a2c EE0F      		lsl r30
 1442 0a2e FF1F      		rol r31
 1443 0a30 E80F      		add r30,r24
 1444 0a32 F91F      		adc r31,r25
 1445 0a34 E050      		subi r30,lo8(-(pxReadyTasksLists))
 1446 0a36 F040      		sbci r31,hi8(-(pxReadyTasksLists))
 1447 0a38 3081      		ld r19,Z
 1448 0a3a 3111      		cpse r19,__zero_reg__
 1449 0a3c 00C0      		rjmp .L111
 1450               	.L112:
 1451 0a3e 2150      		subi r18,lo8(-(-1))
 1452 0a40 822F      		mov r24,r18
 1453 0a42 90E0      		ldi r25,0
 1454 0a44 FC01      		movw r30,r24
 1455 0a46 EE0F      		lsl r30
 1456 0a48 FF1F      		rol r31
 1457 0a4a EE0F      		lsl r30
 1458 0a4c FF1F      		rol r31
 1459 0a4e EE0F      		lsl r30
 1460 0a50 FF1F      		rol r31
 1461 0a52 E80F      		add r30,r24
 1462 0a54 F91F      		adc r31,r25
 1463 0a56 E050      		subi r30,lo8(-(pxReadyTasksLists))
 1464 0a58 F040      		sbci r31,hi8(-(pxReadyTasksLists))
 1465 0a5a 3081      		ld r19,Z
 1466 0a5c 3323      		tst r19
 1467 0a5e 01F0      		breq .L112
 1468               	.L111:
 1469 0a60 AC01      		movw r20,r24
 1470 0a62 440F      		lsl r20
 1471 0a64 551F      		rol r21
 1472 0a66 440F      		lsl r20
 1473 0a68 551F      		rol r21
 1474 0a6a 440F      		lsl r20
 1475 0a6c 551F      		rol r21
 1476 0a6e 480F      		add r20,r24
 1477 0a70 591F      		adc r21,r25
 1478 0a72 DA01      		movw r26,r20
 1479 0a74 A050      		subi r26,lo8(-(pxReadyTasksLists))
 1480 0a76 B040      		sbci r27,hi8(-(pxReadyTasksLists))
 1481 0a78 1196      		adiw r26,1
 1482 0a7a ED91      		ld r30,X+
 1483 0a7c FC91      		ld r31,X
 1484 0a7e 1297      		sbiw r26,1+1
 1485 0a80 0280      		ldd __tmp_reg__,Z+2
 1486 0a82 F381      		ldd r31,Z+3
 1487 0a84 E02D      		mov r30,__tmp_reg__
 1488 0a86 1296      		adiw r26,1+1
 1489 0a88 FC93      		st X,r31
 1490 0a8a EE93      		st -X,r30
 1491 0a8c 1197      		sbiw r26,1
 1492 0a8e 4050      		subi r20,lo8(-(pxReadyTasksLists+3))
 1493 0a90 5040      		sbci r21,hi8(-(pxReadyTasksLists+3))
 1494 0a92 E417      		cp r30,r20
 1495 0a94 F507      		cpc r31,r21
 1496 0a96 01F0      		breq .L115
 1497               	.L113:
 1498 0a98 FC01      		movw r30,r24
 1499 0a9a EE0F      		lsl r30
 1500 0a9c FF1F      		rol r31
 1501 0a9e EE0F      		lsl r30
 1502 0aa0 FF1F      		rol r31
 1503 0aa2 EE0F      		lsl r30
 1504 0aa4 FF1F      		rol r31
 1505 0aa6 E80F      		add r30,r24
 1506 0aa8 F91F      		adc r31,r25
 1507 0aaa E050      		subi r30,lo8(-(pxReadyTasksLists))
 1508 0aac F040      		sbci r31,hi8(-(pxReadyTasksLists))
 1509 0aae 0180      		ldd __tmp_reg__,Z+1
 1510 0ab0 F281      		ldd r31,Z+2
 1511 0ab2 E02D      		mov r30,__tmp_reg__
 1512 0ab4 8681      		ldd r24,Z+6
 1513 0ab6 9781      		ldd r25,Z+7
 1514 0ab8 9093 0000 		sts pxCurrentTCB+1,r25
 1515 0abc 8093 0000 		sts pxCurrentTCB,r24
 1516 0ac0 2093 0000 		sts uxTopReadyPriority,r18
 1517               	/* epilogue start */
 1518 0ac4 0895      		ret
 1519               	.L115:
 1520 0ac6 4281      		ldd r20,Z+2
 1521 0ac8 5381      		ldd r21,Z+3
 1522 0aca FD01      		movw r30,r26
 1523 0acc 5283      		std Z+2,r21
 1524 0ace 4183      		std Z+1,r20
 1525 0ad0 00C0      		rjmp .L113
 1527               	.global	vTaskPlaceOnEventList
 1529               	vTaskPlaceOnEventList:
 1530 0ad2 CF93      		push r28
 1531 0ad4 DF93      		push r29
 1532               	/* prologue: function */
 1533               	/* frame size = 0 */
 1534               	/* stack size = 2 */
 1535               	.L__stack_usage = 2
 1536 0ad6 D62F      		mov r29,r22
 1537 0ad8 C72F      		mov r28,r23
 1538 0ada 6091 0000 		lds r22,pxCurrentTCB
 1539 0ade 7091 0000 		lds r23,pxCurrentTCB+1
 1540 0ae2 645F      		subi r22,-12
 1541 0ae4 7F4F      		sbci r23,-1
 1542 0ae6 0E94 0000 		call vListInsert
 1543 0aea 61E0      		ldi r22,lo8(1)
 1544 0aec 8D2F      		mov r24,r29
 1545 0aee 9C2F      		mov r25,r28
 1546 0af0 0E94 0000 		call prvAddCurrentTaskToDelayedList
 1547               	/* epilogue start */
 1548 0af4 DF91      		pop r29
 1549 0af6 CF91      		pop r28
 1550 0af8 0895      		ret
 1552               	.global	vTaskPlaceOnUnorderedEventList
 1554               	vTaskPlaceOnUnorderedEventList:
 1555 0afa CF93      		push r28
 1556 0afc DF93      		push r29
 1557               	/* prologue: function */
 1558               	/* frame size = 0 */
 1559               	/* stack size = 2 */
 1560               	.L__stack_usage = 2
 1561 0afe E82F      		mov r30,r24
 1562 0b00 F92F      		mov r31,r25
 1563 0b02 A091 0000 		lds r26,pxCurrentTCB
 1564 0b06 B091 0000 		lds r27,pxCurrentTCB+1
 1565 0b0a 7068      		ori r23,128
 1566 0b0c 1D96      		adiw r26,12+1
 1567 0b0e 7C93      		st X,r23
 1568 0b10 6E93      		st -X,r22
 1569 0b12 1C97      		sbiw r26,12
 1570 0b14 A181      		ldd r26,Z+1
 1571 0b16 B281      		ldd r27,Z+2
 1572 0b18 C091 0000 		lds r28,pxCurrentTCB
 1573 0b1c D091 0000 		lds r29,pxCurrentTCB+1
 1574 0b20 BF87      		std Y+15,r27
 1575 0b22 AE87      		std Y+14,r26
 1576 0b24 C091 0000 		lds r28,pxCurrentTCB
 1577 0b28 D091 0000 		lds r29,pxCurrentTCB+1
 1578 0b2c 1496      		adiw r26,4
 1579 0b2e 8D91      		ld r24,X+
 1580 0b30 9C91      		ld r25,X
 1581 0b32 1597      		sbiw r26,4+1
 1582 0b34 998B      		std Y+17,r25
 1583 0b36 888B      		std Y+16,r24
 1584 0b38 2091 0000 		lds r18,pxCurrentTCB
 1585 0b3c 3091 0000 		lds r19,pxCurrentTCB+1
 1586 0b40 1496      		adiw r26,4
 1587 0b42 CD91      		ld r28,X+
 1588 0b44 DC91      		ld r29,X
 1589 0b46 1597      		sbiw r26,4+1
 1590 0b48 245F      		subi r18,-12
 1591 0b4a 3F4F      		sbci r19,-1
 1592 0b4c 3B83      		std Y+3,r19
 1593 0b4e 2A83      		std Y+2,r18
 1594 0b50 2091 0000 		lds r18,pxCurrentTCB
 1595 0b54 3091 0000 		lds r19,pxCurrentTCB+1
 1596 0b58 245F      		subi r18,-12
 1597 0b5a 3F4F      		sbci r19,-1
 1598 0b5c 1596      		adiw r26,4+1
 1599 0b5e 3C93      		st X,r19
 1600 0b60 2E93      		st -X,r18
 1601 0b62 1497      		sbiw r26,4
 1602 0b64 A091 0000 		lds r26,pxCurrentTCB
 1603 0b68 B091 0000 		lds r27,pxCurrentTCB+1
 1604 0b6c 5596      		adiw r26,20+1
 1605 0b6e FC93      		st X,r31
 1606 0b70 EE93      		st -X,r30
 1607 0b72 5497      		sbiw r26,20
 1608 0b74 9081      		ld r25,Z
 1609 0b76 9F5F      		subi r25,lo8(-(1))
 1610 0b78 9083      		st Z,r25
 1611 0b7a 61E0      		ldi r22,lo8(1)
 1612 0b7c CA01      		movw r24,r20
 1613 0b7e 0E94 0000 		call prvAddCurrentTaskToDelayedList
 1614               	/* epilogue start */
 1615 0b82 DF91      		pop r29
 1616 0b84 CF91      		pop r28
 1617 0b86 0895      		ret
 1619               	.global	xTaskRemoveFromEventList
 1621               	xTaskRemoveFromEventList:
 1622 0b88 CF93      		push r28
 1623 0b8a DF93      		push r29
 1624               	/* prologue: function */
 1625               	/* frame size = 0 */
 1626               	/* stack size = 2 */
 1627               	.L__stack_usage = 2
 1628 0b8c DC01      		movw r26,r24
 1629 0b8e 1596      		adiw r26,5
 1630 0b90 ED91      		ld r30,X+
 1631 0b92 FC91      		ld r31,X
 1632 0b94 0680      		ldd __tmp_reg__,Z+6
 1633 0b96 F781      		ldd r31,Z+7
 1634 0b98 E02D      		mov r30,__tmp_reg__
 1635 0b9a A489      		ldd r26,Z+20
 1636 0b9c B589      		ldd r27,Z+21
 1637 0b9e C685      		ldd r28,Z+14
 1638 0ba0 D785      		ldd r29,Z+15
 1639 0ba2 8089      		ldd r24,Z+16
 1640 0ba4 9189      		ldd r25,Z+17
 1641 0ba6 9D83      		std Y+5,r25
 1642 0ba8 8C83      		std Y+4,r24
 1643 0baa C089      		ldd r28,Z+16
 1644 0bac D189      		ldd r29,Z+17
 1645 0bae 8685      		ldd r24,Z+14
 1646 0bb0 9785      		ldd r25,Z+15
 1647 0bb2 9B83      		std Y+3,r25
 1648 0bb4 8A83      		std Y+2,r24
 1649 0bb6 9F01      		movw r18,r30
 1650 0bb8 245F      		subi r18,-12
 1651 0bba 3F4F      		sbci r19,-1
 1652 0bbc 1196      		adiw r26,1
 1653 0bbe 8D91      		ld r24,X+
 1654 0bc0 9C91      		ld r25,X
 1655 0bc2 1297      		sbiw r26,1+1
 1656 0bc4 8217      		cp r24,r18
 1657 0bc6 9307      		cpc r25,r19
 1658 0bc8 01F4      		brne .+2
 1659 0bca 00C0      		rjmp .L126
 1660               	.L119:
 1661 0bcc 158A      		std Z+21,__zero_reg__
 1662 0bce 148A      		std Z+20,__zero_reg__
 1663 0bd0 8C91      		ld r24,X
 1664 0bd2 8150      		subi r24,lo8(-(-1))
 1665 0bd4 8C93      		st X,r24
 1666 0bd6 8091 0000 		lds r24,uxSchedulerSuspended
 1667 0bda 8111      		cpse r24,__zero_reg__
 1668 0bdc 00C0      		rjmp .L120
 1669 0bde A285      		ldd r26,Z+10
 1670 0be0 B385      		ldd r27,Z+11
 1671 0be2 C481      		ldd r28,Z+4
 1672 0be4 D581      		ldd r29,Z+5
 1673 0be6 8681      		ldd r24,Z+6
 1674 0be8 9781      		ldd r25,Z+7
 1675 0bea 9D83      		std Y+5,r25
 1676 0bec 8C83      		std Y+4,r24
 1677 0bee C681      		ldd r28,Z+6
 1678 0bf0 D781      		ldd r29,Z+7
 1679 0bf2 8481      		ldd r24,Z+4
 1680 0bf4 9581      		ldd r25,Z+5
 1681 0bf6 9B83      		std Y+3,r25
 1682 0bf8 8A83      		std Y+2,r24
 1683 0bfa 9F01      		movw r18,r30
 1684 0bfc 2E5F      		subi r18,-2
 1685 0bfe 3F4F      		sbci r19,-1
 1686 0c00 1196      		adiw r26,1
 1687 0c02 8D91      		ld r24,X+
 1688 0c04 9C91      		ld r25,X
 1689 0c06 1297      		sbiw r26,1+1
 1690 0c08 8217      		cp r24,r18
 1691 0c0a 9307      		cpc r25,r19
 1692 0c0c 01F4      		brne .+2
 1693 0c0e 00C0      		rjmp .L127
 1694               	.L121:
 1695 0c10 1386      		std Z+11,__zero_reg__
 1696 0c12 1286      		std Z+10,__zero_reg__
 1697 0c14 8C91      		ld r24,X
 1698 0c16 8150      		subi r24,lo8(-(-1))
 1699 0c18 8C93      		st X,r24
 1700 0c1a 8689      		ldd r24,Z+22
 1701 0c1c 9091 0000 		lds r25,uxTopReadyPriority
 1702 0c20 9817      		cp r25,r24
 1703 0c22 00F4      		brsh .L122
 1704 0c24 8093 0000 		sts uxTopReadyPriority,r24
 1705               	.L122:
 1706 0c28 90E0      		ldi r25,0
 1707 0c2a DC01      		movw r26,r24
 1708 0c2c AA0F      		lsl r26
 1709 0c2e BB1F      		rol r27
 1710 0c30 AA0F      		lsl r26
 1711 0c32 BB1F      		rol r27
 1712 0c34 AA0F      		lsl r26
 1713 0c36 BB1F      		rol r27
 1714 0c38 A80F      		add r26,r24
 1715 0c3a B91F      		adc r27,r25
 1716 0c3c A050      		subi r26,lo8(-(pxReadyTasksLists))
 1717 0c3e B040      		sbci r27,hi8(-(pxReadyTasksLists))
 1718 0c40 1196      		adiw r26,1
 1719 0c42 0D90      		ld __tmp_reg__,X+
 1720 0c44 BC91      		ld r27,X
 1721 0c46 A02D      		mov r26,__tmp_reg__
 1722 0c48 B583      		std Z+5,r27
 1723 0c4a A483      		std Z+4,r26
 1724 0c4c 1496      		adiw r26,4
 1725 0c4e 8D91      		ld r24,X+
 1726 0c50 9C91      		ld r25,X
 1727 0c52 1597      		sbiw r26,4+1
 1728 0c54 9783      		std Z+7,r25
 1729 0c56 8683      		std Z+6,r24
 1730 0c58 1496      		adiw r26,4
 1731 0c5a CD91      		ld r28,X+
 1732 0c5c DC91      		ld r29,X
 1733 0c5e 1597      		sbiw r26,4+1
 1734 0c60 3B83      		std Y+3,r19
 1735 0c62 2A83      		std Y+2,r18
 1736 0c64 1596      		adiw r26,4+1
 1737 0c66 3C93      		st X,r19
 1738 0c68 2E93      		st -X,r18
 1739 0c6a 1497      		sbiw r26,4
 1740 0c6c 8689      		ldd r24,Z+22
 1741 0c6e 90E0      		ldi r25,0
 1742 0c70 DC01      		movw r26,r24
 1743 0c72 AA0F      		lsl r26
 1744 0c74 BB1F      		rol r27
 1745 0c76 AA0F      		lsl r26
 1746 0c78 BB1F      		rol r27
 1747 0c7a AA0F      		lsl r26
 1748 0c7c BB1F      		rol r27
 1749 0c7e A80F      		add r26,r24
 1750 0c80 B91F      		adc r27,r25
 1751 0c82 A050      		subi r26,lo8(-(pxReadyTasksLists))
 1752 0c84 B040      		sbci r27,hi8(-(pxReadyTasksLists))
 1753 0c86 B387      		std Z+11,r27
 1754 0c88 A287      		std Z+10,r26
 1755 0c8a 8C91      		ld r24,X
 1756 0c8c 8F5F      		subi r24,lo8(-(1))
 1757 0c8e 8C93      		st X,r24
 1758               	.L123:
 1759 0c90 A091 0000 		lds r26,pxCurrentTCB
 1760 0c94 B091 0000 		lds r27,pxCurrentTCB+1
 1761 0c98 9689      		ldd r25,Z+22
 1762 0c9a 5696      		adiw r26,22
 1763 0c9c 8C91      		ld r24,X
 1764 0c9e 8917      		cp r24,r25
 1765 0ca0 00F4      		brsh .L125
 1766 0ca2 81E0      		ldi r24,lo8(1)
 1767 0ca4 8093 0000 		sts xYieldPending,r24
 1768               	.L118:
 1769               	/* epilogue start */
 1770 0ca8 DF91      		pop r29
 1771 0caa CF91      		pop r28
 1772 0cac 0895      		ret
 1773               	.L126:
 1774 0cae 8089      		ldd r24,Z+16
 1775 0cb0 9189      		ldd r25,Z+17
 1776 0cb2 1296      		adiw r26,1+1
 1777 0cb4 9C93      		st X,r25
 1778 0cb6 8E93      		st -X,r24
 1779 0cb8 1197      		sbiw r26,1
 1780 0cba 00C0      		rjmp .L119
 1781               	.L127:
 1782 0cbc 8681      		ldd r24,Z+6
 1783 0cbe 9781      		ldd r25,Z+7
 1784 0cc0 1296      		adiw r26,1+1
 1785 0cc2 9C93      		st X,r25
 1786 0cc4 8E93      		st -X,r24
 1787 0cc6 1197      		sbiw r26,1
 1788 0cc8 00C0      		rjmp .L121
 1789               	.L120:
 1790 0cca 40E0      		ldi r20,lo8(xPendingReadyList)
 1791 0ccc 50E0      		ldi r21,hi8(xPendingReadyList)
 1792 0cce DA01      		movw r26,r20
 1793 0cd0 1196      		adiw r26,1
 1794 0cd2 CD91      		ld r28,X+
 1795 0cd4 DC91      		ld r29,X
 1796 0cd6 D787      		std Z+15,r29
 1797 0cd8 C687      		std Z+14,r28
 1798 0cda 8C81      		ldd r24,Y+4
 1799 0cdc 9D81      		ldd r25,Y+5
 1800 0cde 918B      		std Z+17,r25
 1801 0ce0 808B      		std Z+16,r24
 1802 0ce2 8C81      		ldd r24,Y+4
 1803 0ce4 9D81      		ldd r25,Y+5
 1804 0ce6 DC01      		movw r26,r24
 1805 0ce8 1396      		adiw r26,2+1
 1806 0cea 3C93      		st X,r19
 1807 0cec 2E93      		st -X,r18
 1808 0cee 1297      		sbiw r26,2
 1809 0cf0 3D83      		std Y+5,r19
 1810 0cf2 2C83      		std Y+4,r18
 1811 0cf4 558B      		std Z+21,r21
 1812 0cf6 448B      		std Z+20,r20
 1813 0cf8 DA01      		movw r26,r20
 1814 0cfa 8C91      		ld r24,X
 1815 0cfc 8F5F      		subi r24,lo8(-(1))
 1816 0cfe 8C93      		st X,r24
 1817 0d00 00C0      		rjmp .L123
 1818               	.L125:
 1819 0d02 80E0      		ldi r24,0
 1820 0d04 00C0      		rjmp .L118
 1822               	.global	vTaskRemoveFromUnorderedEventList
 1824               	vTaskRemoveFromUnorderedEventList:
 1825 0d06 CF93      		push r28
 1826 0d08 DF93      		push r29
 1827               	/* prologue: function */
 1828               	/* frame size = 0 */
 1829               	/* stack size = 2 */
 1830               	.L__stack_usage = 2
 1831 0d0a A82F      		mov r26,r24
 1832 0d0c B92F      		mov r27,r25
 1833 0d0e 7068      		ori r23,128
 1834 0d10 1196      		adiw r26,1
 1835 0d12 7C93      		st X,r23
 1836 0d14 6E93      		st -X,r22
 1837 0d16 1696      		adiw r26,6
 1838 0d18 ED91      		ld r30,X+
 1839 0d1a FC91      		ld r31,X
 1840 0d1c 1797      		sbiw r26,6+1
 1841 0d1e 1896      		adiw r26,8
 1842 0d20 4D91      		ld r20,X+
 1843 0d22 5C91      		ld r21,X
 1844 0d24 1997      		sbiw r26,8+1
 1845 0d26 1296      		adiw r26,2
 1846 0d28 8D91      		ld r24,X+
 1847 0d2a 9C91      		ld r25,X
 1848 0d2c 1397      		sbiw r26,2+1
 1849 0d2e 1496      		adiw r26,4
 1850 0d30 2D91      		ld r18,X+
 1851 0d32 3C91      		ld r19,X
 1852 0d34 1597      		sbiw r26,4+1
 1853 0d36 EC01      		movw r28,r24
 1854 0d38 3D83      		std Y+5,r19
 1855 0d3a 2C83      		std Y+4,r18
 1856 0d3c 1496      		adiw r26,4
 1857 0d3e 8D91      		ld r24,X+
 1858 0d40 9C91      		ld r25,X
 1859 0d42 1597      		sbiw r26,4+1
 1860 0d44 1296      		adiw r26,2
 1861 0d46 2D91      		ld r18,X+
 1862 0d48 3C91      		ld r19,X
 1863 0d4a 1397      		sbiw r26,2+1
 1864 0d4c EC01      		movw r28,r24
 1865 0d4e 3B83      		std Y+3,r19
 1866 0d50 2A83      		std Y+2,r18
 1867 0d52 EA01      		movw r28,r20
 1868 0d54 8981      		ldd r24,Y+1
 1869 0d56 9A81      		ldd r25,Y+2
 1870 0d58 8A17      		cp r24,r26
 1871 0d5a 9B07      		cpc r25,r27
 1872 0d5c 01F4      		brne .+2
 1873 0d5e 00C0      		rjmp .L133
 1874               	.L129:
 1875 0d60 1996      		adiw r26,8+1
 1876 0d62 1C92      		st X,__zero_reg__
 1877 0d64 1E92      		st -X,__zero_reg__
 1878 0d66 1897      		sbiw r26,8
 1879 0d68 DA01      		movw r26,r20
 1880 0d6a 8C91      		ld r24,X
 1881 0d6c 8150      		subi r24,lo8(-(-1))
 1882 0d6e 8C93      		st X,r24
 1883 0d70 A285      		ldd r26,Z+10
 1884 0d72 B385      		ldd r27,Z+11
 1885 0d74 C481      		ldd r28,Z+4
 1886 0d76 D581      		ldd r29,Z+5
 1887 0d78 8681      		ldd r24,Z+6
 1888 0d7a 9781      		ldd r25,Z+7
 1889 0d7c 9D83      		std Y+5,r25
 1890 0d7e 8C83      		std Y+4,r24
 1891 0d80 C681      		ldd r28,Z+6
 1892 0d82 D781      		ldd r29,Z+7
 1893 0d84 8481      		ldd r24,Z+4
 1894 0d86 9581      		ldd r25,Z+5
 1895 0d88 9B83      		std Y+3,r25
 1896 0d8a 8A83      		std Y+2,r24
 1897 0d8c 9F01      		movw r18,r30
 1898 0d8e 2E5F      		subi r18,-2
 1899 0d90 3F4F      		sbci r19,-1
 1900 0d92 1196      		adiw r26,1
 1901 0d94 8D91      		ld r24,X+
 1902 0d96 9C91      		ld r25,X
 1903 0d98 1297      		sbiw r26,1+1
 1904 0d9a 8217      		cp r24,r18
 1905 0d9c 9307      		cpc r25,r19
 1906 0d9e 01F4      		brne .+2
 1907 0da0 00C0      		rjmp .L134
 1908               	.L130:
 1909 0da2 1386      		std Z+11,__zero_reg__
 1910 0da4 1286      		std Z+10,__zero_reg__
 1911 0da6 8C91      		ld r24,X
 1912 0da8 8150      		subi r24,lo8(-(-1))
 1913 0daa 8C93      		st X,r24
 1914 0dac 8689      		ldd r24,Z+22
 1915 0dae 9091 0000 		lds r25,uxTopReadyPriority
 1916 0db2 9817      		cp r25,r24
 1917 0db4 00F4      		brsh .L131
 1918 0db6 8093 0000 		sts uxTopReadyPriority,r24
 1919               	.L131:
 1920 0dba 90E0      		ldi r25,0
 1921 0dbc DC01      		movw r26,r24
 1922 0dbe AA0F      		lsl r26
 1923 0dc0 BB1F      		rol r27
 1924 0dc2 AA0F      		lsl r26
 1925 0dc4 BB1F      		rol r27
 1926 0dc6 AA0F      		lsl r26
 1927 0dc8 BB1F      		rol r27
 1928 0dca A80F      		add r26,r24
 1929 0dcc B91F      		adc r27,r25
 1930 0dce A050      		subi r26,lo8(-(pxReadyTasksLists))
 1931 0dd0 B040      		sbci r27,hi8(-(pxReadyTasksLists))
 1932 0dd2 1196      		adiw r26,1
 1933 0dd4 0D90      		ld __tmp_reg__,X+
 1934 0dd6 BC91      		ld r27,X
 1935 0dd8 A02D      		mov r26,__tmp_reg__
 1936 0dda B583      		std Z+5,r27
 1937 0ddc A483      		std Z+4,r26
 1938 0dde 1496      		adiw r26,4
 1939 0de0 8D91      		ld r24,X+
 1940 0de2 9C91      		ld r25,X
 1941 0de4 1597      		sbiw r26,4+1
 1942 0de6 9783      		std Z+7,r25
 1943 0de8 8683      		std Z+6,r24
 1944 0dea 1496      		adiw r26,4
 1945 0dec CD91      		ld r28,X+
 1946 0dee DC91      		ld r29,X
 1947 0df0 1597      		sbiw r26,4+1
 1948 0df2 3B83      		std Y+3,r19
 1949 0df4 2A83      		std Y+2,r18
 1950 0df6 1596      		adiw r26,4+1
 1951 0df8 3C93      		st X,r19
 1952 0dfa 2E93      		st -X,r18
 1953 0dfc 1497      		sbiw r26,4
 1954 0dfe 8689      		ldd r24,Z+22
 1955 0e00 90E0      		ldi r25,0
 1956 0e02 DC01      		movw r26,r24
 1957 0e04 AA0F      		lsl r26
 1958 0e06 BB1F      		rol r27
 1959 0e08 AA0F      		lsl r26
 1960 0e0a BB1F      		rol r27
 1961 0e0c AA0F      		lsl r26
 1962 0e0e BB1F      		rol r27
 1963 0e10 A80F      		add r26,r24
 1964 0e12 B91F      		adc r27,r25
 1965 0e14 A050      		subi r26,lo8(-(pxReadyTasksLists))
 1966 0e16 B040      		sbci r27,hi8(-(pxReadyTasksLists))
 1967 0e18 B387      		std Z+11,r27
 1968 0e1a A287      		std Z+10,r26
 1969 0e1c 8C91      		ld r24,X
 1970 0e1e 8F5F      		subi r24,lo8(-(1))
 1971 0e20 8C93      		st X,r24
 1972 0e22 A091 0000 		lds r26,pxCurrentTCB
 1973 0e26 B091 0000 		lds r27,pxCurrentTCB+1
 1974 0e2a 9689      		ldd r25,Z+22
 1975 0e2c 5696      		adiw r26,22
 1976 0e2e 8C91      		ld r24,X
 1977 0e30 8917      		cp r24,r25
 1978 0e32 00F4      		brsh .L128
 1979 0e34 81E0      		ldi r24,lo8(1)
 1980 0e36 8093 0000 		sts xYieldPending,r24
 1981               	.L128:
 1982               	/* epilogue start */
 1983 0e3a DF91      		pop r29
 1984 0e3c CF91      		pop r28
 1985 0e3e 0895      		ret
 1986               	.L133:
 1987 0e40 1496      		adiw r26,4
 1988 0e42 8D91      		ld r24,X+
 1989 0e44 9C91      		ld r25,X
 1990 0e46 1597      		sbiw r26,4+1
 1991 0e48 9A83      		std Y+2,r25
 1992 0e4a 8983      		std Y+1,r24
 1993 0e4c 00C0      		rjmp .L129
 1994               	.L134:
 1995 0e4e 8681      		ldd r24,Z+6
 1996 0e50 9781      		ldd r25,Z+7
 1997 0e52 1296      		adiw r26,1+1
 1998 0e54 9C93      		st X,r25
 1999 0e56 8E93      		st -X,r24
 2000 0e58 1197      		sbiw r26,1
 2001 0e5a 00C0      		rjmp .L130
 2003               	.global	vTaskSetTimeOutState
 2005               	vTaskSetTimeOutState:
 2006               	/* prologue: function */
 2007               	/* frame size = 0 */
 2008               	/* stack size = 0 */
 2009               	.L__stack_usage = 0
 2010 0e5c E82F      		mov r30,r24
 2011 0e5e F92F      		mov r31,r25
 2012               	/* #APP */
 2013               	 ;  3289 "FreeRTOS\tasks.c" 1
 2014 0e60 0FB6      		in		__tmp_reg__, __SREG__
 2015               	 ;  0 "" 2
 2016               	 ;  3289 "FreeRTOS\tasks.c" 1
 2017 0e62 F894      		cli
 2018               	 ;  0 "" 2
 2019               	 ;  3289 "FreeRTOS\tasks.c" 1
 2020 0e64 0F92      		push	__tmp_reg__
 2021               	 ;  0 "" 2
 2022               	/* #NOAPP */
 2023 0e66 8091 0000 		lds r24,xNumOfOverflows
 2024 0e6a 8083      		st Z,r24
 2025 0e6c 8091 0000 		lds r24,xTickCount
 2026 0e70 9091 0000 		lds r25,xTickCount+1
 2027 0e74 9283      		std Z+2,r25
 2028 0e76 8183      		std Z+1,r24
 2029               	/* #APP */
 2030               	 ;  3294 "FreeRTOS\tasks.c" 1
 2031 0e78 0F90      		pop		__tmp_reg__
 2032               	 ;  0 "" 2
 2033               	 ;  3294 "FreeRTOS\tasks.c" 1
 2034 0e7a 0FBE      		out		__SREG__, __tmp_reg__
 2035               	 ;  0 "" 2
 2036               	/* #NOAPP */
 2037               	/* epilogue start */
 2038 0e7c 0895      		ret
 2040               	.global	vTaskInternalSetTimeOutState
 2042               	vTaskInternalSetTimeOutState:
 2043               	/* prologue: function */
 2044               	/* frame size = 0 */
 2045               	/* stack size = 0 */
 2046               	.L__stack_usage = 0
 2047 0e7e E82F      		mov r30,r24
 2048 0e80 F92F      		mov r31,r25
 2049 0e82 8091 0000 		lds r24,xNumOfOverflows
 2050 0e86 8083      		st Z,r24
 2051 0e88 8091 0000 		lds r24,xTickCount
 2052 0e8c 9091 0000 		lds r25,xTickCount+1
 2053 0e90 9283      		std Z+2,r25
 2054 0e92 8183      		std Z+1,r24
 2055               	/* epilogue start */
 2056 0e94 0895      		ret
 2058               	.global	xTaskCheckForTimeOut
 2060               	xTaskCheckForTimeOut:
 2061               	/* prologue: function */
 2062               	/* frame size = 0 */
 2063               	/* stack size = 0 */
 2064               	.L__stack_usage = 0
 2065 0e96 E82F      		mov r30,r24
 2066 0e98 F92F      		mov r31,r25
 2067 0e9a A62F      		mov r26,r22
 2068 0e9c B72F      		mov r27,r23
 2069               	/* #APP */
 2070               	 ;  3314 "FreeRTOS\tasks.c" 1
 2071 0e9e 0FB6      		in		__tmp_reg__, __SREG__
 2072               	 ;  0 "" 2
 2073               	 ;  3314 "FreeRTOS\tasks.c" 1
 2074 0ea0 F894      		cli
 2075               	 ;  0 "" 2
 2076               	 ;  3314 "FreeRTOS\tasks.c" 1
 2077 0ea2 0F92      		push	__tmp_reg__
 2078               	 ;  0 "" 2
 2079               	/* #NOAPP */
 2080 0ea4 2091 0000 		lds r18,xTickCount
 2081 0ea8 3091 0000 		lds r19,xTickCount+1
 2082 0eac 8181      		ldd r24,Z+1
 2083 0eae 9281      		ldd r25,Z+2
 2084 0eb0 4091 0000 		lds r20,xNumOfOverflows
 2085 0eb4 5081      		ld r21,Z
 2086 0eb6 5417      		cp r21,r20
 2087 0eb8 01F0      		breq .L138
 2088 0eba 2817      		cp r18,r24
 2089 0ebc 3907      		cpc r19,r25
 2090 0ebe 00F0      		brlo .L138
 2091 0ec0 1D92      		st X+,__zero_reg__
 2092 0ec2 1C92      		st X,__zero_reg__
 2093 0ec4 81E0      		ldi r24,lo8(1)
 2094 0ec6 00C0      		rjmp .L139
 2095               	.L138:
 2096 0ec8 4D91      		ld r20,X+
 2097 0eca 5C91      		ld r21,X
 2098 0ecc 1197      		sbiw r26,1
 2099 0ece B901      		movw r22,r18
 2100 0ed0 681B      		sub r22,r24
 2101 0ed2 790B      		sbc r23,r25
 2102 0ed4 6417      		cp r22,r20
 2103 0ed6 7507      		cpc r23,r21
 2104 0ed8 00F0      		brlo .L141
 2105 0eda 1D92      		st X+,__zero_reg__
 2106 0edc 1C92      		st X,__zero_reg__
 2107 0ede 81E0      		ldi r24,lo8(1)
 2108               	.L139:
 2109               	/* #APP */
 2110               	 ;  3365 "FreeRTOS\tasks.c" 1
 2111 0ee0 0F90      		pop		__tmp_reg__
 2112               	 ;  0 "" 2
 2113               	 ;  3365 "FreeRTOS\tasks.c" 1
 2114 0ee2 0FBE      		out		__SREG__, __tmp_reg__
 2115               	 ;  0 "" 2
 2116               	/* #NOAPP */
 2117               	/* epilogue start */
 2118 0ee4 0895      		ret
 2119               	.L141:
 2120 0ee6 421B      		sub r20,r18
 2121 0ee8 530B      		sbc r21,r19
 2122 0eea 480F      		add r20,r24
 2123 0eec 591F      		adc r21,r25
 2124 0eee 4D93      		st X+,r20
 2125 0ef0 5C93      		st X,r21
 2126 0ef2 CF01      		movw r24,r30
 2127 0ef4 0E94 0000 		call vTaskInternalSetTimeOutState
 2128 0ef8 80E0      		ldi r24,0
 2129 0efa 00C0      		rjmp .L139
 2131               	.global	vTaskMissedYield
 2133               	vTaskMissedYield:
 2134               	/* prologue: function */
 2135               	/* frame size = 0 */
 2136               	/* stack size = 0 */
 2137               	.L__stack_usage = 0
 2138 0efc 81E0      		ldi r24,lo8(1)
 2139 0efe 8093 0000 		sts xYieldPending,r24
 2140               	/* epilogue start */
 2141 0f02 0895      		ret
 2143               	.global	xTaskGetCurrentTaskHandle
 2145               	xTaskGetCurrentTaskHandle:
 2146               	/* prologue: function */
 2147               	/* frame size = 0 */
 2148               	/* stack size = 0 */
 2149               	.L__stack_usage = 0
 2150 0f04 8091 0000 		lds r24,pxCurrentTCB
 2151 0f08 9091 0000 		lds r25,pxCurrentTCB+1
 2152               	/* epilogue start */
 2153 0f0c 0895      		ret
 2155               	.global	uxTaskResetEventItemValue
 2157               	uxTaskResetEventItemValue:
 2158               	/* prologue: function */
 2159               	/* frame size = 0 */
 2160               	/* stack size = 0 */
 2161               	.L__stack_usage = 0
 2162 0f0e E091 0000 		lds r30,pxCurrentTCB
 2163 0f12 F091 0000 		lds r31,pxCurrentTCB+1
 2164 0f16 8485      		ldd r24,Z+12
 2165 0f18 9585      		ldd r25,Z+13
 2166 0f1a A091 0000 		lds r26,pxCurrentTCB
 2167 0f1e B091 0000 		lds r27,pxCurrentTCB+1
 2168 0f22 E091 0000 		lds r30,pxCurrentTCB
 2169 0f26 F091 0000 		lds r31,pxCurrentTCB+1
 2170 0f2a 5696      		adiw r26,22
 2171 0f2c 4C91      		ld r20,X
 2172 0f2e 24E0      		ldi r18,lo8(4)
 2173 0f30 30E0      		ldi r19,0
 2174 0f32 241B      		sub r18,r20
 2175 0f34 3109      		sbc r19,__zero_reg__
 2176 0f36 3587      		std Z+13,r19
 2177 0f38 2487      		std Z+12,r18
 2178               	/* epilogue start */
 2179 0f3a 0895      		ret
 2181               	.global	ulTaskGenericNotifyTake
 2183               	ulTaskGenericNotifyTake:
 2184 0f3c 1F93      		push r17
 2185 0f3e CF93      		push r28
 2186 0f40 DF93      		push r29
 2187 0f42 00D0      		rcall .
 2188 0f44 00D0      		rcall .
 2189 0f46 00D0      		rcall .
 2190 0f48 CDB7      		in r28,__SP_L__
 2191 0f4a DEB7      		in r29,__SP_H__
 2192               	/* prologue: function */
 2193               	/* frame size = 6 */
 2194               	/* stack size = 9 */
 2195               	.L__stack_usage = 9
 2196 0f4c 162F      		mov r17,r22
 2197 0f4e 242F      		mov r18,r20
 2198 0f50 352F      		mov r19,r21
 2199               	/* #APP */
 2200               	 ;  4699 "FreeRTOS\tasks.c" 1
 2201 0f52 0FB6      		in		__tmp_reg__, __SREG__
 2202               	 ;  0 "" 2
 2203               	 ;  4699 "FreeRTOS\tasks.c" 1
 2204 0f54 F894      		cli
 2205               	 ;  0 "" 2
 2206               	 ;  4699 "FreeRTOS\tasks.c" 1
 2207 0f56 0F92      		push	__tmp_reg__
 2208               	 ;  0 "" 2
 2209               	/* #NOAPP */
 2210 0f58 E091 0000 		lds r30,pxCurrentTCB
 2211 0f5c F091 0000 		lds r31,pxCurrentTCB+1
 2212 0f60 482F      		mov r20,r24
 2213 0f62 50E0      		ldi r21,0
 2214 0f64 5E83      		std Y+6,r21
 2215 0f66 4D83      		std Y+5,r20
 2216 0f68 CA01      		movw r24,r20
 2217 0f6a 880F      		lsl r24
 2218 0f6c 991F      		rol r25
 2219 0f6e 880F      		lsl r24
 2220 0f70 991F      		rol r25
 2221 0f72 E80F      		add r30,r24
 2222 0f74 F91F      		adc r31,r25
 2223 0f76 81A1      		ldd r24,Z+33
 2224 0f78 92A1      		ldd r25,Z+34
 2225 0f7a A3A1      		ldd r26,Z+35
 2226 0f7c B4A1      		ldd r27,Z+36
 2227 0f7e 892B      		or r24,r25
 2228 0f80 8A2B      		or r24,r26
 2229 0f82 8B2B      		or r24,r27
 2230 0f84 01F4      		brne .L146
 2231 0f86 E091 0000 		lds r30,pxCurrentTCB
 2232 0f8a F091 0000 		lds r31,pxCurrentTCB+1
 2233 0f8e E40F      		add r30,r20
 2234 0f90 F51F      		adc r31,r21
 2235 0f92 81E0      		ldi r24,lo8(1)
 2236 0f94 85A3      		std Z+37,r24
 2237 0f96 2115      		cp r18,__zero_reg__
 2238 0f98 3105      		cpc r19,__zero_reg__
 2239 0f9a 01F0      		breq .+2
 2240 0f9c 00C0      		rjmp .L149
 2241               	.L146:
 2242               	/* #APP */
 2243               	 ;  4728 "FreeRTOS\tasks.c" 1
 2244 0f9e 0F90      		pop		__tmp_reg__
 2245               	 ;  0 "" 2
 2246               	 ;  4728 "FreeRTOS\tasks.c" 1
 2247 0fa0 0FBE      		out		__SREG__, __tmp_reg__
 2248               	 ;  0 "" 2
 2249               	 ;  4730 "FreeRTOS\tasks.c" 1
 2250 0fa2 0FB6      		in		__tmp_reg__, __SREG__
 2251               	 ;  0 "" 2
 2252               	 ;  4730 "FreeRTOS\tasks.c" 1
 2253 0fa4 F894      		cli
 2254               	 ;  0 "" 2
 2255               	 ;  4730 "FreeRTOS\tasks.c" 1
 2256 0fa6 0F92      		push	__tmp_reg__
 2257               	 ;  0 "" 2
 2258               	/* #NOAPP */
 2259 0fa8 E091 0000 		lds r30,pxCurrentTCB
 2260 0fac F091 0000 		lds r31,pxCurrentTCB+1
 2261 0fb0 8D81      		ldd r24,Y+5
 2262 0fb2 9E81      		ldd r25,Y+6
 2263 0fb4 880F      		lsl r24
 2264 0fb6 991F      		rol r25
 2265 0fb8 880F      		lsl r24
 2266 0fba 991F      		rol r25
 2267 0fbc E80F      		add r30,r24
 2268 0fbe F91F      		adc r31,r25
 2269 0fc0 81A1      		ldd r24,Z+33
 2270 0fc2 92A1      		ldd r25,Z+34
 2271 0fc4 A3A1      		ldd r26,Z+35
 2272 0fc6 B4A1      		ldd r27,Z+36
 2273 0fc8 8983      		std Y+1,r24
 2274 0fca 9A83      		std Y+2,r25
 2275 0fcc AB83      		std Y+3,r26
 2276 0fce BC83      		std Y+4,r27
 2277 0fd0 892B      		or r24,r25
 2278 0fd2 8A2B      		or r24,r26
 2279 0fd4 8B2B      		or r24,r27
 2280 0fd6 01F0      		breq .L147
 2281 0fd8 1123      		tst r17
 2282 0fda 01F0      		breq .L148
 2283 0fdc E091 0000 		lds r30,pxCurrentTCB
 2284 0fe0 F091 0000 		lds r31,pxCurrentTCB+1
 2285 0fe4 8D81      		ldd r24,Y+5
 2286 0fe6 9E81      		ldd r25,Y+6
 2287 0fe8 880F      		lsl r24
 2288 0fea 991F      		rol r25
 2289 0fec 880F      		lsl r24
 2290 0fee 991F      		rol r25
 2291 0ff0 E80F      		add r30,r24
 2292 0ff2 F91F      		adc r31,r25
 2293 0ff4 11A2      		std Z+33,__zero_reg__
 2294 0ff6 12A2      		std Z+34,__zero_reg__
 2295 0ff8 13A2      		std Z+35,__zero_reg__
 2296 0ffa 14A2      		std Z+36,__zero_reg__
 2297               	.L147:
 2298 0ffc E091 0000 		lds r30,pxCurrentTCB
 2299 1000 F091 0000 		lds r31,pxCurrentTCB+1
 2300 1004 AD81      		ldd r26,Y+5
 2301 1006 BE81      		ldd r27,Y+6
 2302 1008 EA0F      		add r30,r26
 2303 100a FB1F      		adc r31,r27
 2304 100c 15A2      		std Z+37,__zero_reg__
 2305               	/* #APP */
 2306               	 ;  4753 "FreeRTOS\tasks.c" 1
 2307 100e 0F90      		pop		__tmp_reg__
 2308               	 ;  0 "" 2
 2309               	 ;  4753 "FreeRTOS\tasks.c" 1
 2310 1010 0FBE      		out		__SREG__, __tmp_reg__
 2311               	 ;  0 "" 2
 2312               	/* #NOAPP */
 2313 1012 6981      		ldd r22,Y+1
 2314 1014 7A81      		ldd r23,Y+2
 2315 1016 8B81      		ldd r24,Y+3
 2316 1018 9C81      		ldd r25,Y+4
 2317               	/* epilogue start */
 2318 101a 0F90      		pop __tmp_reg__
 2319 101c 0F90      		pop __tmp_reg__
 2320 101e 0F90      		pop __tmp_reg__
 2321 1020 0F90      		pop __tmp_reg__
 2322 1022 0F90      		pop __tmp_reg__
 2323 1024 0F90      		pop __tmp_reg__
 2324 1026 DF91      		pop r29
 2325 1028 CF91      		pop r28
 2326 102a 1F91      		pop r17
 2327 102c 0895      		ret
 2328               	.L149:
 2329 102e 61E0      		ldi r22,lo8(1)
 2330 1030 C901      		movw r24,r18
 2331 1032 0E94 0000 		call prvAddCurrentTaskToDelayedList
 2332 1036 0E94 0000 		call vPortYield
 2333 103a 00C0      		rjmp .L146
 2334               	.L148:
 2335 103c E091 0000 		lds r30,pxCurrentTCB
 2336 1040 F091 0000 		lds r31,pxCurrentTCB+1
 2337 1044 8D81      		ldd r24,Y+5
 2338 1046 9E81      		ldd r25,Y+6
 2339 1048 880F      		lsl r24
 2340 104a 991F      		rol r25
 2341 104c 880F      		lsl r24
 2342 104e 991F      		rol r25
 2343 1050 E80F      		add r30,r24
 2344 1052 F91F      		adc r31,r25
 2345 1054 8981      		ldd r24,Y+1
 2346 1056 9A81      		ldd r25,Y+2
 2347 1058 AB81      		ldd r26,Y+3
 2348 105a BC81      		ldd r27,Y+4
 2349 105c 0197      		sbiw r24,1
 2350 105e A109      		sbc r26,__zero_reg__
 2351 1060 B109      		sbc r27,__zero_reg__
 2352 1062 81A3      		std Z+33,r24
 2353 1064 92A3      		std Z+34,r25
 2354 1066 A3A3      		std Z+35,r26
 2355 1068 B4A3      		std Z+36,r27
 2356 106a 00C0      		rjmp .L147
 2358               	.global	xTaskGenericNotifyWait
 2360               	xTaskGenericNotifyWait:
 2361 106c 4F92      		push r4
 2362 106e 5F92      		push r5
 2363 1070 6F92      		push r6
 2364 1072 7F92      		push r7
 2365 1074 8F92      		push r8
 2366 1076 9F92      		push r9
 2367 1078 AF92      		push r10
 2368 107a BF92      		push r11
 2369 107c CF92      		push r12
 2370 107e DF92      		push r13
 2371 1080 EF92      		push r14
 2372 1082 FF92      		push r15
 2373 1084 0F93      		push r16
 2374 1086 1F93      		push r17
 2375 1088 CF93      		push r28
 2376 108a DF93      		push r29
 2377               	/* prologue: function */
 2378               	/* frame size = 0 */
 2379               	/* stack size = 16 */
 2380               	.L__stack_usage = 16
 2381 108c C82F      		mov r28,r24
 2382 108e 442E      		mov r4,r20
 2383 1090 552E      		mov r5,r21
 2384 1092 662E      		mov r6,r22
 2385 1094 772E      		mov r7,r23
 2386 1096 802E      		mov r8,r16
 2387 1098 912E      		mov r9,r17
 2388 109a A22E      		mov r10,r18
 2389 109c B32E      		mov r11,r19
 2390 109e 0E2D      		mov r16,r14
 2391 10a0 1F2D      		mov r17,r15
 2392 10a2 8C2D      		mov r24,r12
 2393 10a4 9D2D      		mov r25,r13
 2394               	/* #APP */
 2395               	 ;  4773 "FreeRTOS\tasks.c" 1
 2396 10a6 0FB6      		in		__tmp_reg__, __SREG__
 2397               	 ;  0 "" 2
 2398               	 ;  4773 "FreeRTOS\tasks.c" 1
 2399 10a8 F894      		cli
 2400               	 ;  0 "" 2
 2401               	 ;  4773 "FreeRTOS\tasks.c" 1
 2402 10aa 0F92      		push	__tmp_reg__
 2403               	 ;  0 "" 2
 2404               	/* #NOAPP */
 2405 10ac E091 0000 		lds r30,pxCurrentTCB
 2406 10b0 F091 0000 		lds r31,pxCurrentTCB+1
 2407 10b4 D0E0      		ldi r29,0
 2408 10b6 EC0F      		add r30,r28
 2409 10b8 FD1F      		adc r31,r29
 2410 10ba 25A1      		ldd r18,Z+37
 2411 10bc 2230      		cpi r18,lo8(2)
 2412 10be 01F0      		breq .L151
 2413 10c0 E091 0000 		lds r30,pxCurrentTCB
 2414 10c4 F091 0000 		lds r31,pxCurrentTCB+1
 2415 10c8 9E01      		movw r18,r28
 2416 10ca 220F      		lsl r18
 2417 10cc 331F      		rol r19
 2418 10ce 220F      		lsl r18
 2419 10d0 331F      		rol r19
 2420 10d2 E20F      		add r30,r18
 2421 10d4 F31F      		adc r31,r19
 2422 10d6 41A1      		ldd r20,Z+33
 2423 10d8 52A1      		ldd r21,Z+34
 2424 10da 63A1      		ldd r22,Z+35
 2425 10dc 74A1      		ldd r23,Z+36
 2426 10de 4094      		com r4
 2427 10e0 5094      		com r5
 2428 10e2 6094      		com r6
 2429 10e4 7094      		com r7
 2430 10e6 4422      		and r4,r20
 2431 10e8 5522      		and r5,r21
 2432 10ea 6622      		and r6,r22
 2433 10ec 7722      		and r7,r23
 2434 10ee 41A2      		std Z+33,r4
 2435 10f0 52A2      		std Z+34,r5
 2436 10f2 63A2      		std Z+35,r6
 2437 10f4 74A2      		std Z+36,r7
 2438 10f6 E091 0000 		lds r30,pxCurrentTCB
 2439 10fa F091 0000 		lds r31,pxCurrentTCB+1
 2440 10fe EC0F      		add r30,r28
 2441 1100 FD1F      		adc r31,r29
 2442 1102 21E0      		ldi r18,lo8(1)
 2443 1104 25A3      		std Z+37,r18
 2444 1106 0097      		sbiw r24,0
 2445 1108 01F0      		breq .+2
 2446 110a 00C0      		rjmp .L155
 2447               	.L151:
 2448               	/* #APP */
 2449               	 ;  4807 "FreeRTOS\tasks.c" 1
 2450 110c 0F90      		pop		__tmp_reg__
 2451               	 ;  0 "" 2
 2452               	 ;  4807 "FreeRTOS\tasks.c" 1
 2453 110e 0FBE      		out		__SREG__, __tmp_reg__
 2454               	 ;  0 "" 2
 2455               	 ;  4809 "FreeRTOS\tasks.c" 1
 2456 1110 0FB6      		in		__tmp_reg__, __SREG__
 2457               	 ;  0 "" 2
 2458               	 ;  4809 "FreeRTOS\tasks.c" 1
 2459 1112 F894      		cli
 2460               	 ;  0 "" 2
 2461               	 ;  4809 "FreeRTOS\tasks.c" 1
 2462 1114 0F92      		push	__tmp_reg__
 2463               	 ;  0 "" 2
 2464               	/* #NOAPP */
 2465 1116 0115      		cp r16,__zero_reg__
 2466 1118 1105      		cpc r17,__zero_reg__
 2467 111a 01F0      		breq .L152
 2468 111c E091 0000 		lds r30,pxCurrentTCB
 2469 1120 F091 0000 		lds r31,pxCurrentTCB+1
 2470 1124 CE01      		movw r24,r28
 2471 1126 880F      		lsl r24
 2472 1128 991F      		rol r25
 2473 112a 880F      		lsl r24
 2474 112c 991F      		rol r25
 2475 112e E80F      		add r30,r24
 2476 1130 F91F      		adc r31,r25
 2477 1132 81A1      		ldd r24,Z+33
 2478 1134 92A1      		ldd r25,Z+34
 2479 1136 A3A1      		ldd r26,Z+35
 2480 1138 B4A1      		ldd r27,Z+36
 2481 113a F801      		movw r30,r16
 2482 113c 8083      		st Z,r24
 2483 113e 9183      		std Z+1,r25
 2484 1140 A283      		std Z+2,r26
 2485 1142 B383      		std Z+3,r27
 2486               	.L152:
 2487 1144 E091 0000 		lds r30,pxCurrentTCB
 2488 1148 F091 0000 		lds r31,pxCurrentTCB+1
 2489 114c EC0F      		add r30,r28
 2490 114e FD1F      		adc r31,r29
 2491 1150 85A1      		ldd r24,Z+37
 2492 1152 8230      		cpi r24,lo8(2)
 2493 1154 01F0      		breq .L156
 2494 1156 80E0      		ldi r24,0
 2495               	.L153:
 2496 1158 E091 0000 		lds r30,pxCurrentTCB
 2497 115c F091 0000 		lds r31,pxCurrentTCB+1
 2498 1160 EC0F      		add r30,r28
 2499 1162 FD1F      		adc r31,r29
 2500 1164 15A2      		std Z+37,__zero_reg__
 2501               	/* #APP */
 2502               	 ;  4839 "FreeRTOS\tasks.c" 1
 2503 1166 0F90      		pop		__tmp_reg__
 2504               	 ;  0 "" 2
 2505               	 ;  4839 "FreeRTOS\tasks.c" 1
 2506 1168 0FBE      		out		__SREG__, __tmp_reg__
 2507               	 ;  0 "" 2
 2508               	/* #NOAPP */
 2509               	/* epilogue start */
 2510 116a DF91      		pop r29
 2511 116c CF91      		pop r28
 2512 116e 1F91      		pop r17
 2513 1170 0F91      		pop r16
 2514 1172 FF90      		pop r15
 2515 1174 EF90      		pop r14
 2516 1176 DF90      		pop r13
 2517 1178 CF90      		pop r12
 2518 117a BF90      		pop r11
 2519 117c AF90      		pop r10
 2520 117e 9F90      		pop r9
 2521 1180 8F90      		pop r8
 2522 1182 7F90      		pop r7
 2523 1184 6F90      		pop r6
 2524 1186 5F90      		pop r5
 2525 1188 4F90      		pop r4
 2526 118a 0895      		ret
 2527               	.L155:
 2528 118c 61E0      		ldi r22,lo8(1)
 2529 118e 0E94 0000 		call prvAddCurrentTaskToDelayedList
 2530 1192 0E94 0000 		call vPortYield
 2531 1196 00C0      		rjmp .L151
 2532               	.L156:
 2533 1198 E091 0000 		lds r30,pxCurrentTCB
 2534 119c F091 0000 		lds r31,pxCurrentTCB+1
 2535 11a0 CE01      		movw r24,r28
 2536 11a2 880F      		lsl r24
 2537 11a4 991F      		rol r25
 2538 11a6 880F      		lsl r24
 2539 11a8 991F      		rol r25
 2540 11aa E80F      		add r30,r24
 2541 11ac F91F      		adc r31,r25
 2542 11ae 81A1      		ldd r24,Z+33
 2543 11b0 92A1      		ldd r25,Z+34
 2544 11b2 A3A1      		ldd r26,Z+35
 2545 11b4 B4A1      		ldd r27,Z+36
 2546 11b6 8094      		com r8
 2547 11b8 9094      		com r9
 2548 11ba A094      		com r10
 2549 11bc B094      		com r11
 2550 11be 8821      		and r24,r8
 2551 11c0 9921      		and r25,r9
 2552 11c2 AA21      		and r26,r10
 2553 11c4 BB21      		and r27,r11
 2554 11c6 81A3      		std Z+33,r24
 2555 11c8 92A3      		std Z+34,r25
 2556 11ca A3A3      		std Z+35,r26
 2557 11cc B4A3      		std Z+36,r27
 2558 11ce 81E0      		ldi r24,lo8(1)
 2559 11d0 00C0      		rjmp .L153
 2561               	.global	xTaskGenericNotify
 2563               	xTaskGenericNotify:
 2564 11d2 8F92      		push r8
 2565 11d4 9F92      		push r9
 2566 11d6 AF92      		push r10
 2567 11d8 BF92      		push r11
 2568 11da CF92      		push r12
 2569 11dc DF92      		push r13
 2570 11de EF92      		push r14
 2571 11e0 FF92      		push r15
 2572 11e2 0F93      		push r16
 2573 11e4 CF93      		push r28
 2574 11e6 DF93      		push r29
 2575               	/* prologue: function */
 2576               	/* frame size = 0 */
 2577               	/* stack size = 11 */
 2578               	.L__stack_usage = 11
 2579 11e8 A82F      		mov r26,r24
 2580 11ea B92F      		mov r27,r25
 2581 11ec 822E      		mov r8,r18
 2582 11ee 932E      		mov r9,r19
 2583 11f0 A42E      		mov r10,r20
 2584 11f2 B52E      		mov r11,r21
 2585 11f4 EE2D      		mov r30,r14
 2586 11f6 FF2D      		mov r31,r15
 2587               	/* #APP */
 2588               	 ;  4863 "FreeRTOS\tasks.c" 1
 2589 11f8 0FB6      		in		__tmp_reg__, __SREG__
 2590               	 ;  0 "" 2
 2591               	 ;  4863 "FreeRTOS\tasks.c" 1
 2592 11fa F894      		cli
 2593               	 ;  0 "" 2
 2594               	 ;  4863 "FreeRTOS\tasks.c" 1
 2595 11fc 0F92      		push	__tmp_reg__
 2596               	 ;  0 "" 2
 2597               	/* #NOAPP */
 2598 11fe 3097      		sbiw r30,0
 2599 1200 01F0      		breq .L158
 2600 1202 C62F      		mov r28,r22
 2601 1204 D0E0      		ldi r29,0
 2602 1206 CC0F      		lsl r28
 2603 1208 DD1F      		rol r29
 2604 120a CC0F      		lsl r28
 2605 120c DD1F      		rol r29
 2606 120e CA0F      		add r28,r26
 2607 1210 DB1F      		adc r29,r27
 2608 1212 C9A0      		ldd r12,Y+33
 2609 1214 DAA0      		ldd r13,Y+34
 2610 1216 EBA0      		ldd r14,Y+35
 2611 1218 FCA0      		ldd r15,Y+36
 2612 121a C082      		st Z,r12
 2613 121c D182      		std Z+1,r13
 2614 121e E282      		std Z+2,r14
 2615 1220 F382      		std Z+3,r15
 2616               	.L158:
 2617 1222 70E0      		ldi r23,0
 2618 1224 FD01      		movw r30,r26
 2619 1226 E60F      		add r30,r22
 2620 1228 F71F      		adc r31,r23
 2621 122a 85A1      		ldd r24,Z+37
 2622 122c 92E0      		ldi r25,lo8(2)
 2623 122e 95A3      		std Z+37,r25
 2624 1230 0330      		cpi r16,lo8(3)
 2625 1232 01F4      		brne .+2
 2626 1234 00C0      		rjmp .L159
 2627 1236 00F4      		brsh .L160
 2628 1238 0130      		cpi r16,lo8(1)
 2629 123a 01F0      		breq .L161
 2630 123c 0230      		cpi r16,lo8(2)
 2631 123e 01F4      		brne .L163
 2632 1240 660F      		lsl r22
 2633 1242 771F      		rol r23
 2634 1244 660F      		lsl r22
 2635 1246 771F      		rol r23
 2636 1248 FD01      		movw r30,r26
 2637 124a E60F      		add r30,r22
 2638 124c F71F      		adc r31,r23
 2639 124e 41A1      		ldd r20,Z+33
 2640 1250 52A1      		ldd r21,Z+34
 2641 1252 63A1      		ldd r22,Z+35
 2642 1254 74A1      		ldd r23,Z+36
 2643 1256 4F5F      		subi r20,-1
 2644 1258 5F4F      		sbci r21,-1
 2645 125a 6F4F      		sbci r22,-1
 2646 125c 7F4F      		sbci r23,-1
 2647 125e 41A3      		std Z+33,r20
 2648 1260 52A3      		std Z+34,r21
 2649 1262 63A3      		std Z+35,r22
 2650 1264 74A3      		std Z+36,r23
 2651 1266 00C0      		rjmp .L163
 2652               	.L160:
 2653 1268 0430      		cpi r16,lo8(4)
 2654 126a 01F4      		brne .L163
 2655 126c 8230      		cpi r24,lo8(2)
 2656 126e 01F4      		brne .+2
 2657 1270 00C0      		rjmp .L168
 2658 1272 660F      		lsl r22
 2659 1274 771F      		rol r23
 2660 1276 660F      		lsl r22
 2661 1278 771F      		rol r23
 2662 127a FD01      		movw r30,r26
 2663 127c E60F      		add r30,r22
 2664 127e F71F      		adc r31,r23
 2665 1280 81A2      		std Z+33,r8
 2666 1282 92A2      		std Z+34,r9
 2667 1284 A3A2      		std Z+35,r10
 2668 1286 B4A2      		std Z+36,r11
 2669 1288 00C0      		rjmp .L163
 2670               	.L161:
 2671 128a 660F      		lsl r22
 2672 128c 771F      		rol r23
 2673 128e 660F      		lsl r22
 2674 1290 771F      		rol r23
 2675 1292 FD01      		movw r30,r26
 2676 1294 E60F      		add r30,r22
 2677 1296 F71F      		adc r31,r23
 2678 1298 41A1      		ldd r20,Z+33
 2679 129a 52A1      		ldd r21,Z+34
 2680 129c 63A1      		ldd r22,Z+35
 2681 129e 74A1      		ldd r23,Z+36
 2682 12a0 4829      		or r20,r8
 2683 12a2 5929      		or r21,r9
 2684 12a4 6A29      		or r22,r10
 2685 12a6 7B29      		or r23,r11
 2686 12a8 41A3      		std Z+33,r20
 2687 12aa 52A3      		std Z+34,r21
 2688 12ac 63A3      		std Z+35,r22
 2689 12ae 74A3      		std Z+36,r23
 2690               	.L163:
 2691 12b0 8130      		cpi r24,lo8(1)
 2692 12b2 01F0      		breq .L171
 2693 12b4 81E0      		ldi r24,lo8(1)
 2694               	.L165:
 2695               	/* #APP */
 2696               	 ;  4962 "FreeRTOS\tasks.c" 1
 2697 12b6 0F90      		pop		__tmp_reg__
 2698               	 ;  0 "" 2
 2699               	 ;  4962 "FreeRTOS\tasks.c" 1
 2700 12b8 0FBE      		out		__SREG__, __tmp_reg__
 2701               	 ;  0 "" 2
 2702               	/* #NOAPP */
 2703               	/* epilogue start */
 2704 12ba DF91      		pop r29
 2705 12bc CF91      		pop r28
 2706 12be 0F91      		pop r16
 2707 12c0 FF90      		pop r15
 2708 12c2 EF90      		pop r14
 2709 12c4 DF90      		pop r13
 2710 12c6 CF90      		pop r12
 2711 12c8 BF90      		pop r11
 2712 12ca AF90      		pop r10
 2713 12cc 9F90      		pop r9
 2714 12ce 8F90      		pop r8
 2715 12d0 0895      		ret
 2716               	.L159:
 2717 12d2 660F      		lsl r22
 2718 12d4 771F      		rol r23
 2719 12d6 660F      		lsl r22
 2720 12d8 771F      		rol r23
 2721 12da FD01      		movw r30,r26
 2722 12dc E60F      		add r30,r22
 2723 12de F71F      		adc r31,r23
 2724 12e0 81A2      		std Z+33,r8
 2725 12e2 92A2      		std Z+34,r9
 2726 12e4 A3A2      		std Z+35,r10
 2727 12e6 B4A2      		std Z+36,r11
 2728 12e8 00C0      		rjmp .L163
 2729               	.L171:
 2730 12ea 1A96      		adiw r26,10
 2731 12ec ED91      		ld r30,X+
 2732 12ee FC91      		ld r31,X
 2733 12f0 1B97      		sbiw r26,10+1
 2734 12f2 1496      		adiw r26,4
 2735 12f4 CD91      		ld r28,X+
 2736 12f6 DC91      		ld r29,X
 2737 12f8 1597      		sbiw r26,4+1
 2738 12fa 1696      		adiw r26,6
 2739 12fc 8D91      		ld r24,X+
 2740 12fe 9C91      		ld r25,X
 2741 1300 1797      		sbiw r26,6+1
 2742 1302 9D83      		std Y+5,r25
 2743 1304 8C83      		std Y+4,r24
 2744 1306 1696      		adiw r26,6
 2745 1308 CD91      		ld r28,X+
 2746 130a DC91      		ld r29,X
 2747 130c 1797      		sbiw r26,6+1
 2748 130e 1496      		adiw r26,4
 2749 1310 8D91      		ld r24,X+
 2750 1312 9C91      		ld r25,X
 2751 1314 1597      		sbiw r26,4+1
 2752 1316 9B83      		std Y+3,r25
 2753 1318 8A83      		std Y+2,r24
 2754 131a 9D01      		movw r18,r26
 2755 131c 2E5F      		subi r18,-2
 2756 131e 3F4F      		sbci r19,-1
 2757 1320 8181      		ldd r24,Z+1
 2758 1322 9281      		ldd r25,Z+2
 2759 1324 8217      		cp r24,r18
 2760 1326 9307      		cpc r25,r19
 2761 1328 01F4      		brne .+2
 2762 132a 00C0      		rjmp .L172
 2763               	.L166:
 2764 132c 1B96      		adiw r26,10+1
 2765 132e 1C92      		st X,__zero_reg__
 2766 1330 1E92      		st -X,__zero_reg__
 2767 1332 1A97      		sbiw r26,10
 2768 1334 8081      		ld r24,Z
 2769 1336 8150      		subi r24,lo8(-(-1))
 2770 1338 8083      		st Z,r24
 2771 133a 5696      		adiw r26,22
 2772 133c 8C91      		ld r24,X
 2773 133e 5697      		sbiw r26,22
 2774 1340 9091 0000 		lds r25,uxTopReadyPriority
 2775 1344 9817      		cp r25,r24
 2776 1346 00F4      		brsh .L167
 2777 1348 8093 0000 		sts uxTopReadyPriority,r24
 2778               	.L167:
 2779 134c 90E0      		ldi r25,0
 2780 134e FC01      		movw r30,r24
 2781 1350 EE0F      		lsl r30
 2782 1352 FF1F      		rol r31
 2783 1354 EE0F      		lsl r30
 2784 1356 FF1F      		rol r31
 2785 1358 EE0F      		lsl r30
 2786 135a FF1F      		rol r31
 2787 135c E80F      		add r30,r24
 2788 135e F91F      		adc r31,r25
 2789 1360 E050      		subi r30,lo8(-(pxReadyTasksLists))
 2790 1362 F040      		sbci r31,hi8(-(pxReadyTasksLists))
 2791 1364 0180      		ldd __tmp_reg__,Z+1
 2792 1366 F281      		ldd r31,Z+2
 2793 1368 E02D      		mov r30,__tmp_reg__
 2794 136a 1596      		adiw r26,4+1
 2795 136c FC93      		st X,r31
 2796 136e EE93      		st -X,r30
 2797 1370 1497      		sbiw r26,4
 2798 1372 8481      		ldd r24,Z+4
 2799 1374 9581      		ldd r25,Z+5
 2800 1376 1796      		adiw r26,6+1
 2801 1378 9C93      		st X,r25
 2802 137a 8E93      		st -X,r24
 2803 137c 1697      		sbiw r26,6
 2804 137e C481      		ldd r28,Z+4
 2805 1380 D581      		ldd r29,Z+5
 2806 1382 3B83      		std Y+3,r19
 2807 1384 2A83      		std Y+2,r18
 2808 1386 3583      		std Z+5,r19
 2809 1388 2483      		std Z+4,r18
 2810 138a 5696      		adiw r26,22
 2811 138c 8C91      		ld r24,X
 2812 138e 5697      		sbiw r26,22
 2813 1390 90E0      		ldi r25,0
 2814 1392 FC01      		movw r30,r24
 2815 1394 EE0F      		lsl r30
 2816 1396 FF1F      		rol r31
 2817 1398 EE0F      		lsl r30
 2818 139a FF1F      		rol r31
 2819 139c EE0F      		lsl r30
 2820 139e FF1F      		rol r31
 2821 13a0 E80F      		add r30,r24
 2822 13a2 F91F      		adc r31,r25
 2823 13a4 E050      		subi r30,lo8(-(pxReadyTasksLists))
 2824 13a6 F040      		sbci r31,hi8(-(pxReadyTasksLists))
 2825 13a8 1B96      		adiw r26,10+1
 2826 13aa FC93      		st X,r31
 2827 13ac EE93      		st -X,r30
 2828 13ae 1A97      		sbiw r26,10
 2829 13b0 8081      		ld r24,Z
 2830 13b2 8F5F      		subi r24,lo8(-(1))
 2831 13b4 8083      		st Z,r24
 2832 13b6 E091 0000 		lds r30,pxCurrentTCB
 2833 13ba F091 0000 		lds r31,pxCurrentTCB+1
 2834 13be 5696      		adiw r26,22
 2835 13c0 9C91      		ld r25,X
 2836 13c2 8689      		ldd r24,Z+22
 2837 13c4 8917      		cp r24,r25
 2838 13c6 00F0      		brlo .L173
 2839 13c8 81E0      		ldi r24,lo8(1)
 2840 13ca 00C0      		rjmp .L165
 2841               	.L172:
 2842 13cc 1696      		adiw r26,6
 2843 13ce 8D91      		ld r24,X+
 2844 13d0 9C91      		ld r25,X
 2845 13d2 1797      		sbiw r26,6+1
 2846 13d4 9283      		std Z+2,r25
 2847 13d6 8183      		std Z+1,r24
 2848 13d8 00C0      		rjmp .L166
 2849               	.L173:
 2850 13da 0E94 0000 		call vPortYield
 2851 13de 81E0      		ldi r24,lo8(1)
 2852 13e0 00C0      		rjmp .L165
 2853               	.L168:
 2854 13e2 80E0      		ldi r24,0
 2855 13e4 00C0      		rjmp .L165
 2857               	.global	xTaskGenericNotifyFromISR
 2859               	xTaskGenericNotifyFromISR:
 2860 13e6 6F92      		push r6
 2861 13e8 7F92      		push r7
 2862 13ea 8F92      		push r8
 2863 13ec 9F92      		push r9
 2864 13ee AF92      		push r10
 2865 13f0 BF92      		push r11
 2866 13f2 CF92      		push r12
 2867 13f4 DF92      		push r13
 2868 13f6 EF92      		push r14
 2869 13f8 FF92      		push r15
 2870 13fa 0F93      		push r16
 2871 13fc CF93      		push r28
 2872 13fe DF93      		push r29
 2873               	/* prologue: function */
 2874               	/* frame size = 0 */
 2875               	/* stack size = 13 */
 2876               	.L__stack_usage = 13
 2877 1400 C82F      		mov r28,r24
 2878 1402 D92F      		mov r29,r25
 2879 1404 822E      		mov r8,r18
 2880 1406 932E      		mov r9,r19
 2881 1408 A42E      		mov r10,r20
 2882 140a B52E      		mov r11,r21
 2883 140c EE2D      		mov r30,r14
 2884 140e FF2D      		mov r31,r15
 2885 1410 6C2C      		mov r6,r12
 2886 1412 7D2C      		mov r7,r13
 2887 1414 3097      		sbiw r30,0
 2888 1416 01F0      		breq .L175
 2889 1418 862F      		mov r24,r22
 2890 141a 90E0      		ldi r25,0
 2891 141c 880F      		lsl r24
 2892 141e 991F      		rol r25
 2893 1420 880F      		lsl r24
 2894 1422 991F      		rol r25
 2895 1424 8C0F      		add r24,r28
 2896 1426 9D1F      		adc r25,r29
 2897 1428 DC01      		movw r26,r24
 2898 142a 9196      		adiw r26,33
 2899 142c CD90      		ld r12,X+
 2900 142e DD90      		ld r13,X+
 2901 1430 ED90      		ld r14,X+
 2902 1432 FC90      		ld r15,X
 2903 1434 9497      		sbiw r26,33+3
 2904 1436 C082      		st Z,r12
 2905 1438 D182      		std Z+1,r13
 2906 143a E282      		std Z+2,r14
 2907 143c F382      		std Z+3,r15
 2908               	.L175:
 2909 143e 70E0      		ldi r23,0
 2910 1440 FE01      		movw r30,r28
 2911 1442 E60F      		add r30,r22
 2912 1444 F71F      		adc r31,r23
 2913 1446 85A1      		ldd r24,Z+37
 2914 1448 92E0      		ldi r25,lo8(2)
 2915 144a 95A3      		std Z+37,r25
 2916 144c 0330      		cpi r16,lo8(3)
 2917 144e 01F4      		brne .+2
 2918 1450 00C0      		rjmp .L176
 2919 1452 00F4      		brsh .L177
 2920 1454 0130      		cpi r16,lo8(1)
 2921 1456 01F0      		breq .L178
 2922 1458 0230      		cpi r16,lo8(2)
 2923 145a 01F4      		brne .L180
 2924 145c 660F      		lsl r22
 2925 145e 771F      		rol r23
 2926 1460 660F      		lsl r22
 2927 1462 771F      		rol r23
 2928 1464 FE01      		movw r30,r28
 2929 1466 E60F      		add r30,r22
 2930 1468 F71F      		adc r31,r23
 2931 146a 41A1      		ldd r20,Z+33
 2932 146c 52A1      		ldd r21,Z+34
 2933 146e 63A1      		ldd r22,Z+35
 2934 1470 74A1      		ldd r23,Z+36
 2935 1472 4F5F      		subi r20,-1
 2936 1474 5F4F      		sbci r21,-1
 2937 1476 6F4F      		sbci r22,-1
 2938 1478 7F4F      		sbci r23,-1
 2939 147a 41A3      		std Z+33,r20
 2940 147c 52A3      		std Z+34,r21
 2941 147e 63A3      		std Z+35,r22
 2942 1480 74A3      		std Z+36,r23
 2943 1482 00C0      		rjmp .L180
 2944               	.L177:
 2945 1484 0430      		cpi r16,lo8(4)
 2946 1486 01F4      		brne .L180
 2947 1488 8230      		cpi r24,lo8(2)
 2948 148a 01F4      		brne .+2
 2949 148c 00C0      		rjmp .L188
 2950 148e 660F      		lsl r22
 2951 1490 771F      		rol r23
 2952 1492 660F      		lsl r22
 2953 1494 771F      		rol r23
 2954 1496 FE01      		movw r30,r28
 2955 1498 E60F      		add r30,r22
 2956 149a F71F      		adc r31,r23
 2957 149c 81A2      		std Z+33,r8
 2958 149e 92A2      		std Z+34,r9
 2959 14a0 A3A2      		std Z+35,r10
 2960 14a2 B4A2      		std Z+36,r11
 2961 14a4 00C0      		rjmp .L180
 2962               	.L178:
 2963 14a6 660F      		lsl r22
 2964 14a8 771F      		rol r23
 2965 14aa 660F      		lsl r22
 2966 14ac 771F      		rol r23
 2967 14ae FE01      		movw r30,r28
 2968 14b0 E60F      		add r30,r22
 2969 14b2 F71F      		adc r31,r23
 2970 14b4 41A1      		ldd r20,Z+33
 2971 14b6 52A1      		ldd r21,Z+34
 2972 14b8 63A1      		ldd r22,Z+35
 2973 14ba 74A1      		ldd r23,Z+36
 2974 14bc 4829      		or r20,r8
 2975 14be 5929      		or r21,r9
 2976 14c0 6A29      		or r22,r10
 2977 14c2 7B29      		or r23,r11
 2978 14c4 41A3      		std Z+33,r20
 2979 14c6 52A3      		std Z+34,r21
 2980 14c8 63A3      		std Z+35,r22
 2981 14ca 74A3      		std Z+36,r23
 2982               	.L180:
 2983 14cc 8130      		cpi r24,lo8(1)
 2984 14ce 01F0      		breq .L191
 2985 14d0 81E0      		ldi r24,lo8(1)
 2986               	.L174:
 2987               	/* epilogue start */
 2988 14d2 DF91      		pop r29
 2989 14d4 CF91      		pop r28
 2990 14d6 0F91      		pop r16
 2991 14d8 FF90      		pop r15
 2992 14da EF90      		pop r14
 2993 14dc DF90      		pop r13
 2994 14de CF90      		pop r12
 2995 14e0 BF90      		pop r11
 2996 14e2 AF90      		pop r10
 2997 14e4 9F90      		pop r9
 2998 14e6 8F90      		pop r8
 2999 14e8 7F90      		pop r7
 3000 14ea 6F90      		pop r6
 3001 14ec 0895      		ret
 3002               	.L176:
 3003 14ee 660F      		lsl r22
 3004 14f0 771F      		rol r23
 3005 14f2 660F      		lsl r22
 3006 14f4 771F      		rol r23
 3007 14f6 FE01      		movw r30,r28
 3008 14f8 E60F      		add r30,r22
 3009 14fa F71F      		adc r31,r23
 3010 14fc 81A2      		std Z+33,r8
 3011 14fe 92A2      		std Z+34,r9
 3012 1500 A3A2      		std Z+35,r10
 3013 1502 B4A2      		std Z+36,r11
 3014 1504 00C0      		rjmp .L180
 3015               	.L191:
 3016 1506 8091 0000 		lds r24,uxSchedulerSuspended
 3017 150a 8111      		cpse r24,__zero_reg__
 3018 150c 00C0      		rjmp .L183
 3019 150e EA85      		ldd r30,Y+10
 3020 1510 FB85      		ldd r31,Y+11
 3021 1512 8C81      		ldd r24,Y+4
 3022 1514 9D81      		ldd r25,Y+5
 3023 1516 2E81      		ldd r18,Y+6
 3024 1518 3F81      		ldd r19,Y+7
 3025 151a DC01      		movw r26,r24
 3026 151c 1596      		adiw r26,4+1
 3027 151e 3C93      		st X,r19
 3028 1520 2E93      		st -X,r18
 3029 1522 1497      		sbiw r26,4
 3030 1524 8E81      		ldd r24,Y+6
 3031 1526 9F81      		ldd r25,Y+7
 3032 1528 2C81      		ldd r18,Y+4
 3033 152a 3D81      		ldd r19,Y+5
 3034 152c DC01      		movw r26,r24
 3035 152e 1396      		adiw r26,2+1
 3036 1530 3C93      		st X,r19
 3037 1532 2E93      		st -X,r18
 3038 1534 1297      		sbiw r26,2
 3039 1536 9E01      		movw r18,r28
 3040 1538 2E5F      		subi r18,-2
 3041 153a 3F4F      		sbci r19,-1
 3042 153c 8181      		ldd r24,Z+1
 3043 153e 9281      		ldd r25,Z+2
 3044 1540 8217      		cp r24,r18
 3045 1542 9307      		cpc r25,r19
 3046 1544 01F4      		brne .+2
 3047 1546 00C0      		rjmp .L192
 3048               	.L184:
 3049 1548 1B86      		std Y+11,__zero_reg__
 3050 154a 1A86      		std Y+10,__zero_reg__
 3051 154c 8081      		ld r24,Z
 3052 154e 8150      		subi r24,lo8(-(-1))
 3053 1550 8083      		st Z,r24
 3054 1552 8E89      		ldd r24,Y+22
 3055 1554 9091 0000 		lds r25,uxTopReadyPriority
 3056 1558 9817      		cp r25,r24
 3057 155a 00F4      		brsh .L185
 3058 155c 8093 0000 		sts uxTopReadyPriority,r24
 3059               	.L185:
 3060 1560 90E0      		ldi r25,0
 3061 1562 FC01      		movw r30,r24
 3062 1564 EE0F      		lsl r30
 3063 1566 FF1F      		rol r31
 3064 1568 EE0F      		lsl r30
 3065 156a FF1F      		rol r31
 3066 156c EE0F      		lsl r30
 3067 156e FF1F      		rol r31
 3068 1570 E80F      		add r30,r24
 3069 1572 F91F      		adc r31,r25
 3070 1574 E050      		subi r30,lo8(-(pxReadyTasksLists))
 3071 1576 F040      		sbci r31,hi8(-(pxReadyTasksLists))
 3072 1578 0180      		ldd __tmp_reg__,Z+1
 3073 157a F281      		ldd r31,Z+2
 3074 157c E02D      		mov r30,__tmp_reg__
 3075 157e FD83      		std Y+5,r31
 3076 1580 EC83      		std Y+4,r30
 3077 1582 8481      		ldd r24,Z+4
 3078 1584 9581      		ldd r25,Z+5
 3079 1586 9F83      		std Y+7,r25
 3080 1588 8E83      		std Y+6,r24
 3081 158a 8481      		ldd r24,Z+4
 3082 158c 9581      		ldd r25,Z+5
 3083 158e DC01      		movw r26,r24
 3084 1590 1396      		adiw r26,2+1
 3085 1592 3C93      		st X,r19
 3086 1594 2E93      		st -X,r18
 3087 1596 1297      		sbiw r26,2
 3088 1598 3583      		std Z+5,r19
 3089 159a 2483      		std Z+4,r18
 3090 159c 8E89      		ldd r24,Y+22
 3091 159e 90E0      		ldi r25,0
 3092 15a0 FC01      		movw r30,r24
 3093 15a2 EE0F      		lsl r30
 3094 15a4 FF1F      		rol r31
 3095 15a6 EE0F      		lsl r30
 3096 15a8 FF1F      		rol r31
 3097 15aa EE0F      		lsl r30
 3098 15ac FF1F      		rol r31
 3099 15ae E80F      		add r30,r24
 3100 15b0 F91F      		adc r31,r25
 3101 15b2 E050      		subi r30,lo8(-(pxReadyTasksLists))
 3102 15b4 F040      		sbci r31,hi8(-(pxReadyTasksLists))
 3103 15b6 FB87      		std Y+11,r31
 3104 15b8 EA87      		std Y+10,r30
 3105 15ba 8081      		ld r24,Z
 3106 15bc 8F5F      		subi r24,lo8(-(1))
 3107 15be 8083      		st Z,r24
 3108               	.L186:
 3109 15c0 E091 0000 		lds r30,pxCurrentTCB
 3110 15c4 F091 0000 		lds r31,pxCurrentTCB+1
 3111 15c8 9E89      		ldd r25,Y+22
 3112 15ca 8689      		ldd r24,Z+22
 3113 15cc 8917      		cp r24,r25
 3114 15ce 00F4      		brsh .L190
 3115 15d0 6114      		cp r6,__zero_reg__
 3116 15d2 7104      		cpc r7,__zero_reg__
 3117 15d4 01F0      		breq .L187
 3118 15d6 81E0      		ldi r24,lo8(1)
 3119 15d8 F301      		movw r30,r6
 3120 15da 8083      		st Z,r24
 3121               	.L187:
 3122 15dc 81E0      		ldi r24,lo8(1)
 3123 15de 8093 0000 		sts xYieldPending,r24
 3124 15e2 00C0      		rjmp .L174
 3125               	.L192:
 3126 15e4 8E81      		ldd r24,Y+6
 3127 15e6 9F81      		ldd r25,Y+7
 3128 15e8 9283      		std Z+2,r25
 3129 15ea 8183      		std Z+1,r24
 3130 15ec 00C0      		rjmp .L184
 3131               	.L183:
 3132 15ee E0E0      		ldi r30,lo8(xPendingReadyList)
 3133 15f0 F0E0      		ldi r31,hi8(xPendingReadyList)
 3134 15f2 8181      		ldd r24,Z+1
 3135 15f4 9281      		ldd r25,Z+2
 3136 15f6 9F87      		std Y+15,r25
 3137 15f8 8E87      		std Y+14,r24
 3138 15fa DC01      		movw r26,r24
 3139 15fc 1496      		adiw r26,4
 3140 15fe 2D91      		ld r18,X+
 3141 1600 3C91      		ld r19,X
 3142 1602 1597      		sbiw r26,4+1
 3143 1604 398B      		std Y+17,r19
 3144 1606 288B      		std Y+16,r18
 3145 1608 1496      		adiw r26,4
 3146 160a 4D91      		ld r20,X+
 3147 160c 5C91      		ld r21,X
 3148 160e 9E01      		movw r18,r28
 3149 1610 245F      		subi r18,-12
 3150 1612 3F4F      		sbci r19,-1
 3151 1614 DA01      		movw r26,r20
 3152 1616 1396      		adiw r26,2+1
 3153 1618 3C93      		st X,r19
 3154 161a 2E93      		st -X,r18
 3155 161c 1297      		sbiw r26,2
 3156 161e DC01      		movw r26,r24
 3157 1620 1596      		adiw r26,4+1
 3158 1622 3C93      		st X,r19
 3159 1624 2E93      		st -X,r18
 3160 1626 1497      		sbiw r26,4
 3161 1628 FD8B      		std Y+21,r31
 3162 162a EC8B      		std Y+20,r30
 3163 162c 8081      		ld r24,Z
 3164 162e 8F5F      		subi r24,lo8(-(1))
 3165 1630 8083      		st Z,r24
 3166 1632 00C0      		rjmp .L186
 3167               	.L188:
 3168 1634 80E0      		ldi r24,0
 3169 1636 00C0      		rjmp .L174
 3170               	.L190:
 3171 1638 81E0      		ldi r24,lo8(1)
 3172 163a 00C0      		rjmp .L174
 3174               	.global	vTaskGenericNotifyGiveFromISR
 3176               	vTaskGenericNotifyGiveFromISR:
 3177 163c 0F93      		push r16
 3178 163e 1F93      		push r17
 3179 1640 CF93      		push r28
 3180 1642 DF93      		push r29
 3181               	/* prologue: function */
 3182               	/* frame size = 0 */
 3183               	/* stack size = 4 */
 3184               	.L__stack_usage = 4
 3185 1644 C82F      		mov r28,r24
 3186 1646 D92F      		mov r29,r25
 3187 1648 042F      		mov r16,r20
 3188 164a 152F      		mov r17,r21
 3189 164c E62F      		mov r30,r22
 3190 164e F0E0      		ldi r31,0
 3191 1650 DE01      		movw r26,r28
 3192 1652 AE0F      		add r26,r30
 3193 1654 BF1F      		adc r27,r31
 3194 1656 9596      		adiw r26,37
 3195 1658 2C91      		ld r18,X
 3196 165a 9597      		sbiw r26,37
 3197 165c 32E0      		ldi r19,lo8(2)
 3198 165e 9596      		adiw r26,37
 3199 1660 3C93      		st X,r19
 3200 1662 EE0F      		lsl r30
 3201 1664 FF1F      		rol r31
 3202 1666 EE0F      		lsl r30
 3203 1668 FF1F      		rol r31
 3204 166a EC0F      		add r30,r28
 3205 166c FD1F      		adc r31,r29
 3206 166e 41A1      		ldd r20,Z+33
 3207 1670 52A1      		ldd r21,Z+34
 3208 1672 63A1      		ldd r22,Z+35
 3209 1674 74A1      		ldd r23,Z+36
 3210 1676 4F5F      		subi r20,-1
 3211 1678 5F4F      		sbci r21,-1
 3212 167a 6F4F      		sbci r22,-1
 3213 167c 7F4F      		sbci r23,-1
 3214 167e 41A3      		std Z+33,r20
 3215 1680 52A3      		std Z+34,r21
 3216 1682 63A3      		std Z+35,r22
 3217 1684 74A3      		std Z+36,r23
 3218 1686 2130      		cpi r18,lo8(1)
 3219 1688 01F0      		breq .L200
 3220               	.L193:
 3221               	/* epilogue start */
 3222 168a DF91      		pop r29
 3223 168c CF91      		pop r28
 3224 168e 1F91      		pop r17
 3225 1690 0F91      		pop r16
 3226 1692 0895      		ret
 3227               	.L200:
 3228 1694 8091 0000 		lds r24,uxSchedulerSuspended
 3229 1698 8111      		cpse r24,__zero_reg__
 3230 169a 00C0      		rjmp .L195
 3231 169c EA85      		ldd r30,Y+10
 3232 169e FB85      		ldd r31,Y+11
 3233 16a0 8C81      		ldd r24,Y+4
 3234 16a2 9D81      		ldd r25,Y+5
 3235 16a4 2E81      		ldd r18,Y+6
 3236 16a6 3F81      		ldd r19,Y+7
 3237 16a8 DC01      		movw r26,r24
 3238 16aa 1596      		adiw r26,4+1
 3239 16ac 3C93      		st X,r19
 3240 16ae 2E93      		st -X,r18
 3241 16b0 1497      		sbiw r26,4
 3242 16b2 8E81      		ldd r24,Y+6
 3243 16b4 9F81      		ldd r25,Y+7
 3244 16b6 2C81      		ldd r18,Y+4
 3245 16b8 3D81      		ldd r19,Y+5
 3246 16ba DC01      		movw r26,r24
 3247 16bc 1396      		adiw r26,2+1
 3248 16be 3C93      		st X,r19
 3249 16c0 2E93      		st -X,r18
 3250 16c2 1297      		sbiw r26,2
 3251 16c4 9E01      		movw r18,r28
 3252 16c6 2E5F      		subi r18,-2
 3253 16c8 3F4F      		sbci r19,-1
 3254 16ca 8181      		ldd r24,Z+1
 3255 16cc 9281      		ldd r25,Z+2
 3256 16ce 8217      		cp r24,r18
 3257 16d0 9307      		cpc r25,r19
 3258 16d2 01F4      		brne .+2
 3259 16d4 00C0      		rjmp .L201
 3260               	.L196:
 3261 16d6 1B86      		std Y+11,__zero_reg__
 3262 16d8 1A86      		std Y+10,__zero_reg__
 3263 16da 8081      		ld r24,Z
 3264 16dc 8150      		subi r24,lo8(-(-1))
 3265 16de 8083      		st Z,r24
 3266 16e0 8E89      		ldd r24,Y+22
 3267 16e2 9091 0000 		lds r25,uxTopReadyPriority
 3268 16e6 9817      		cp r25,r24
 3269 16e8 00F4      		brsh .L197
 3270 16ea 8093 0000 		sts uxTopReadyPriority,r24
 3271               	.L197:
 3272 16ee 90E0      		ldi r25,0
 3273 16f0 FC01      		movw r30,r24
 3274 16f2 EE0F      		lsl r30
 3275 16f4 FF1F      		rol r31
 3276 16f6 EE0F      		lsl r30
 3277 16f8 FF1F      		rol r31
 3278 16fa EE0F      		lsl r30
 3279 16fc FF1F      		rol r31
 3280 16fe E80F      		add r30,r24
 3281 1700 F91F      		adc r31,r25
 3282 1702 E050      		subi r30,lo8(-(pxReadyTasksLists))
 3283 1704 F040      		sbci r31,hi8(-(pxReadyTasksLists))
 3284 1706 0180      		ldd __tmp_reg__,Z+1
 3285 1708 F281      		ldd r31,Z+2
 3286 170a E02D      		mov r30,__tmp_reg__
 3287 170c FD83      		std Y+5,r31
 3288 170e EC83      		std Y+4,r30
 3289 1710 8481      		ldd r24,Z+4
 3290 1712 9581      		ldd r25,Z+5
 3291 1714 9F83      		std Y+7,r25
 3292 1716 8E83      		std Y+6,r24
 3293 1718 8481      		ldd r24,Z+4
 3294 171a 9581      		ldd r25,Z+5
 3295 171c DC01      		movw r26,r24
 3296 171e 1396      		adiw r26,2+1
 3297 1720 3C93      		st X,r19
 3298 1722 2E93      		st -X,r18
 3299 1724 1297      		sbiw r26,2
 3300 1726 3583      		std Z+5,r19
 3301 1728 2483      		std Z+4,r18
 3302 172a 8E89      		ldd r24,Y+22
 3303 172c 90E0      		ldi r25,0
 3304 172e FC01      		movw r30,r24
 3305 1730 EE0F      		lsl r30
 3306 1732 FF1F      		rol r31
 3307 1734 EE0F      		lsl r30
 3308 1736 FF1F      		rol r31
 3309 1738 EE0F      		lsl r30
 3310 173a FF1F      		rol r31
 3311 173c E80F      		add r30,r24
 3312 173e F91F      		adc r31,r25
 3313 1740 E050      		subi r30,lo8(-(pxReadyTasksLists))
 3314 1742 F040      		sbci r31,hi8(-(pxReadyTasksLists))
 3315 1744 FB87      		std Y+11,r31
 3316 1746 EA87      		std Y+10,r30
 3317 1748 8081      		ld r24,Z
 3318 174a 8F5F      		subi r24,lo8(-(1))
 3319 174c 8083      		st Z,r24
 3320               	.L198:
 3321 174e E091 0000 		lds r30,pxCurrentTCB
 3322 1752 F091 0000 		lds r31,pxCurrentTCB+1
 3323 1756 9E89      		ldd r25,Y+22
 3324 1758 8689      		ldd r24,Z+22
 3325 175a 8917      		cp r24,r25
 3326 175c 00F0      		brlo .+2
 3327 175e 00C0      		rjmp .L193
 3328 1760 0115      		cp r16,__zero_reg__
 3329 1762 1105      		cpc r17,__zero_reg__
 3330 1764 01F0      		breq .L199
 3331 1766 81E0      		ldi r24,lo8(1)
 3332 1768 F801      		movw r30,r16
 3333 176a 8083      		st Z,r24
 3334               	.L199:
 3335 176c 81E0      		ldi r24,lo8(1)
 3336 176e 8093 0000 		sts xYieldPending,r24
 3337 1772 00C0      		rjmp .L193
 3338               	.L201:
 3339 1774 8E81      		ldd r24,Y+6
 3340 1776 9F81      		ldd r25,Y+7
 3341 1778 9283      		std Z+2,r25
 3342 177a 8183      		std Z+1,r24
 3343 177c 00C0      		rjmp .L196
 3344               	.L195:
 3345 177e E0E0      		ldi r30,lo8(xPendingReadyList)
 3346 1780 F0E0      		ldi r31,hi8(xPendingReadyList)
 3347 1782 8181      		ldd r24,Z+1
 3348 1784 9281      		ldd r25,Z+2
 3349 1786 9F87      		std Y+15,r25
 3350 1788 8E87      		std Y+14,r24
 3351 178a DC01      		movw r26,r24
 3352 178c 1496      		adiw r26,4
 3353 178e 2D91      		ld r18,X+
 3354 1790 3C91      		ld r19,X
 3355 1792 1597      		sbiw r26,4+1
 3356 1794 398B      		std Y+17,r19
 3357 1796 288B      		std Y+16,r18
 3358 1798 1496      		adiw r26,4
 3359 179a 4D91      		ld r20,X+
 3360 179c 5C91      		ld r21,X
 3361 179e 9E01      		movw r18,r28
 3362 17a0 245F      		subi r18,-12
 3363 17a2 3F4F      		sbci r19,-1
 3364 17a4 DA01      		movw r26,r20
 3365 17a6 1396      		adiw r26,2+1
 3366 17a8 3C93      		st X,r19
 3367 17aa 2E93      		st -X,r18
 3368 17ac 1297      		sbiw r26,2
 3369 17ae DC01      		movw r26,r24
 3370 17b0 1596      		adiw r26,4+1
 3371 17b2 3C93      		st X,r19
 3372 17b4 2E93      		st -X,r18
 3373 17b6 1497      		sbiw r26,4
 3374 17b8 FD8B      		std Y+21,r31
 3375 17ba EC8B      		std Y+20,r30
 3376 17bc 8081      		ld r24,Z
 3377 17be 8F5F      		subi r24,lo8(-(1))
 3378 17c0 8083      		st Z,r24
 3379 17c2 00C0      		rjmp .L198
 3381               	.global	xTaskGenericNotifyStateClear
 3383               	xTaskGenericNotifyStateClear:
 3384               	/* prologue: function */
 3385               	/* frame size = 0 */
 3386               	/* stack size = 0 */
 3387               	.L__stack_usage = 0
 3388 17c4 282F      		mov r18,r24
 3389 17c6 392F      		mov r19,r25
 3390 17c8 2115      		cp r18,__zero_reg__
 3391 17ca 3105      		cpc r19,__zero_reg__
 3392 17cc 01F0      		breq .L206
 3393               	.L203:
 3394               	/* #APP */
 3395               	 ;  5212 "FreeRTOS\tasks.c" 1
 3396 17ce 0FB6      		in		__tmp_reg__, __SREG__
 3397               	 ;  0 "" 2
 3398               	 ;  5212 "FreeRTOS\tasks.c" 1
 3399 17d0 F894      		cli
 3400               	 ;  0 "" 2
 3401               	 ;  5212 "FreeRTOS\tasks.c" 1
 3402 17d2 0F92      		push	__tmp_reg__
 3403               	 ;  0 "" 2
 3404               	/* #NOAPP */
 3405 17d4 70E0      		ldi r23,0
 3406 17d6 F901      		movw r30,r18
 3407 17d8 E60F      		add r30,r22
 3408 17da F71F      		adc r31,r23
 3409 17dc 85A1      		ldd r24,Z+37
 3410 17de 8230      		cpi r24,lo8(2)
 3411 17e0 01F0      		breq .L207
 3412 17e2 80E0      		ldi r24,0
 3413               	.L204:
 3414               	/* #APP */
 3415               	 ;  5224 "FreeRTOS\tasks.c" 1
 3416 17e4 0F90      		pop		__tmp_reg__
 3417               	 ;  0 "" 2
 3418               	 ;  5224 "FreeRTOS\tasks.c" 1
 3419 17e6 0FBE      		out		__SREG__, __tmp_reg__
 3420               	 ;  0 "" 2
 3421               	/* #NOAPP */
 3422               	/* epilogue start */
 3423 17e8 0895      		ret
 3424               	.L206:
 3425 17ea 2091 0000 		lds r18,pxCurrentTCB
 3426 17ee 3091 0000 		lds r19,pxCurrentTCB+1
 3427 17f2 00C0      		rjmp .L203
 3428               	.L207:
 3429 17f4 15A2      		std Z+37,__zero_reg__
 3430 17f6 81E0      		ldi r24,lo8(1)
 3431 17f8 00C0      		rjmp .L204
 3433               	.global	ulTaskGenericNotifyValueClear
 3435               	ulTaskGenericNotifyValueClear:
 3436 17fa CF93      		push r28
 3437 17fc DF93      		push r29
 3438 17fe 00D0      		rcall .
 3439 1800 00D0      		rcall .
 3440 1802 CDB7      		in r28,__SP_L__
 3441 1804 DEB7      		in r29,__SP_H__
 3442               	/* prologue: function */
 3443               	/* frame size = 4 */
 3444               	/* stack size = 6 */
 3445               	.L__stack_usage = 6
 3446 1806 E82F      		mov r30,r24
 3447 1808 F92F      		mov r31,r25
 3448 180a 822F      		mov r24,r18
 3449 180c 932F      		mov r25,r19
 3450 180e A42F      		mov r26,r20
 3451 1810 B52F      		mov r27,r21
 3452 1812 3097      		sbiw r30,0
 3453 1814 01F0      		breq .L210
 3454               	.L209:
 3455               	/* #APP */
 3456               	 ;  5245 "FreeRTOS\tasks.c" 1
 3457 1816 0FB6      		in		__tmp_reg__, __SREG__
 3458               	 ;  0 "" 2
 3459               	 ;  5245 "FreeRTOS\tasks.c" 1
 3460 1818 F894      		cli
 3461               	 ;  0 "" 2
 3462               	 ;  5245 "FreeRTOS\tasks.c" 1
 3463 181a 0F92      		push	__tmp_reg__
 3464               	 ;  0 "" 2
 3465               	/* #NOAPP */
 3466 181c 70E0      		ldi r23,0
 3467 181e 660F      		lsl r22
 3468 1820 771F      		rol r23
 3469 1822 660F      		lsl r22
 3470 1824 771F      		rol r23
 3471 1826 E60F      		add r30,r22
 3472 1828 F71F      		adc r31,r23
 3473 182a 21A1      		ldd r18,Z+33
 3474 182c 32A1      		ldd r19,Z+34
 3475 182e 43A1      		ldd r20,Z+35
 3476 1830 54A1      		ldd r21,Z+36
 3477 1832 2983      		std Y+1,r18
 3478 1834 3A83      		std Y+2,r19
 3479 1836 4B83      		std Y+3,r20
 3480 1838 5C83      		std Y+4,r21
 3481 183a 41A1      		ldd r20,Z+33
 3482 183c 52A1      		ldd r21,Z+34
 3483 183e 63A1      		ldd r22,Z+35
 3484 1840 74A1      		ldd r23,Z+36
 3485 1842 8095      		com r24
 3486 1844 9095      		com r25
 3487 1846 A095      		com r26
 3488 1848 B095      		com r27
 3489 184a 8423      		and r24,r20
 3490 184c 9523      		and r25,r21
 3491 184e A623      		and r26,r22
 3492 1850 B723      		and r27,r23
 3493 1852 81A3      		std Z+33,r24
 3494 1854 92A3      		std Z+34,r25
 3495 1856 A3A3      		std Z+35,r26
 3496 1858 B4A3      		std Z+36,r27
 3497               	/* #APP */
 3498               	 ;  5252 "FreeRTOS\tasks.c" 1
 3499 185a 0F90      		pop		__tmp_reg__
 3500               	 ;  0 "" 2
 3501               	 ;  5252 "FreeRTOS\tasks.c" 1
 3502 185c 0FBE      		out		__SREG__, __tmp_reg__
 3503               	 ;  0 "" 2
 3504               	/* #NOAPP */
 3505 185e 6981      		ldd r22,Y+1
 3506 1860 7A81      		ldd r23,Y+2
 3507 1862 8B81      		ldd r24,Y+3
 3508 1864 9C81      		ldd r25,Y+4
 3509               	/* epilogue start */
 3510 1866 0F90      		pop __tmp_reg__
 3511 1868 0F90      		pop __tmp_reg__
 3512 186a 0F90      		pop __tmp_reg__
 3513 186c 0F90      		pop __tmp_reg__
 3514 186e DF91      		pop r29
 3515 1870 CF91      		pop r28
 3516 1872 0895      		ret
 3517               	.L210:
 3518 1874 E091 0000 		lds r30,pxCurrentTCB
 3519 1878 F091 0000 		lds r31,pxCurrentTCB+1
 3520 187c 00C0      		rjmp .L209
 3522               		.local	uxSchedulerSuspended
 3523               		.comm	uxSchedulerSuspended,1,1
 3524               	.global	uxTopUsedPriority
 3525               		.data
 3528               	uxTopUsedPriority:
 3529 0000 03        		.byte	3
 3530               		.local	xIdleTaskHandle
 3531               		.comm	xIdleTaskHandle,2,1
 3532               		.local	xNextTaskUnblockTime
 3533               		.comm	xNextTaskUnblockTime,2,1
 3534               		.local	uxTaskNumber
 3535               		.comm	uxTaskNumber,1,1
 3536               		.local	xNumOfOverflows
 3537               		.comm	xNumOfOverflows,1,1
 3538               		.local	xYieldPending
 3539               		.comm	xYieldPending,1,1
 3540               		.local	xPendedTicks
 3541               		.comm	xPendedTicks,2,1
 3542               		.local	xSchedulerRunning
 3543               		.comm	xSchedulerRunning,1,1
 3544               		.local	uxTopReadyPriority
 3545               		.comm	uxTopReadyPriority,1,1
 3546               		.local	xTickCount
 3547               		.comm	xTickCount,2,1
 3548               		.local	uxCurrentNumberOfTasks
 3549               		.comm	uxCurrentNumberOfTasks,1,1
 3550               		.local	uxDeletedTasksWaitingCleanUp
 3551               		.comm	uxDeletedTasksWaitingCleanUp,1,1
 3552               		.local	xTasksWaitingTermination
 3553               		.comm	xTasksWaitingTermination,9,1
 3554               		.local	xPendingReadyList
 3555               		.comm	xPendingReadyList,9,1
 3556               		.local	pxOverflowDelayedTaskList
 3557               		.comm	pxOverflowDelayedTaskList,2,1
 3558               		.local	pxDelayedTaskList
 3559               		.comm	pxDelayedTaskList,2,1
 3560               		.local	xDelayedTaskList2
 3561               		.comm	xDelayedTaskList2,9,1
 3562               		.local	xDelayedTaskList1
 3563               		.comm	xDelayedTaskList1,9,1
 3564               		.local	pxReadyTasksLists
 3565               		.comm	pxReadyTasksLists,36,1
 3566               	.global	pxCurrentTCB
 3567               		.section .bss
 3570               	pxCurrentTCB:
 3571 0000 0000      		.zero	2
 3572               		.ident	"GCC: (GNU) 12.2.0"
 3573               	.global __do_copy_data
 3574               	.global __do_clear_bss
DEFINED SYMBOLS
                            *ABS*:0000000000000000 tasks.c
C:\Users\win10\AppData\Local\Temp\ccu7p2Gz.s:2      *ABS*:000000000000003e __SP_H__
C:\Users\win10\AppData\Local\Temp\ccu7p2Gz.s:3      *ABS*:000000000000003d __SP_L__
C:\Users\win10\AppData\Local\Temp\ccu7p2Gz.s:4      *ABS*:000000000000003f __SREG__
C:\Users\win10\AppData\Local\Temp\ccu7p2Gz.s:5      *ABS*:0000000000000000 __tmp_reg__
C:\Users\win10\AppData\Local\Temp\ccu7p2Gz.s:6      *ABS*:0000000000000001 __zero_reg__
C:\Users\win10\AppData\Local\Temp\ccu7p2Gz.s:9      .text:0000000000000000 prvResetNextTaskUnblockTime
C:\Users\win10\AppData\Local\Temp\ccu7p2Gz.s:3557   .bss:0000000000000026 pxDelayedTaskList
C:\Users\win10\AppData\Local\Temp\ccu7p2Gz.s:3531   .bss:0000000000000005 xNextTaskUnblockTime
C:\Users\win10\AppData\Local\Temp\ccu7p2Gz.s:38     .text:0000000000000038 prvAddCurrentTaskToDelayedList
C:\Users\win10\AppData\Local\Temp\ccu7p2Gz.s:3545   .bss:000000000000000e xTickCount
C:\Users\win10\AppData\Local\Temp\ccu7p2Gz.s:3570   .bss:0000000000000000 pxCurrentTCB
C:\Users\win10\AppData\Local\Temp\ccu7p2Gz.s:3555   .bss:0000000000000024 pxOverflowDelayedTaskList
C:\Users\win10\AppData\Local\Temp\ccu7p2Gz.s:96     .text:00000000000000c2 prvIdleTask
C:\Users\win10\AppData\Local\Temp\ccu7p2Gz.s:3551   .bss:0000000000000012 xTasksWaitingTermination
C:\Users\win10\AppData\Local\Temp\ccu7p2Gz.s:3563   .bss:000000000000003a pxReadyTasksLists
C:\Users\win10\AppData\Local\Temp\ccu7p2Gz.s:3549   .bss:0000000000000011 uxDeletedTasksWaitingCleanUp
C:\Users\win10\AppData\Local\Temp\ccu7p2Gz.s:3547   .bss:0000000000000010 uxCurrentNumberOfTasks
C:\Users\win10\AppData\Local\Temp\ccu7p2Gz.s:170    .text:0000000000000136 xTaskCreate
C:\Users\win10\AppData\Local\Temp\ccu7p2Gz.s:207    .text:000000000000017a L0
C:\Users\win10\AppData\Local\Temp\ccu7p2Gz.s:215    .text:000000000000018c L0
C:\Users\win10\AppData\Local\Temp\ccu7p2Gz.s:3541   .bss:000000000000000c xSchedulerRunning
C:\Users\win10\AppData\Local\Temp\ccu7p2Gz.s:345    .text:000000000000028c L0
C:\Users\win10\AppData\Local\Temp\ccu7p2Gz.s:3533   .bss:0000000000000007 uxTaskNumber
C:\Users\win10\AppData\Local\Temp\ccu7p2Gz.s:3543   .bss:000000000000000d uxTopReadyPriority
C:\Users\win10\AppData\Local\Temp\ccu7p2Gz.s:3561   .bss:0000000000000031 xDelayedTaskList1
C:\Users\win10\AppData\Local\Temp\ccu7p2Gz.s:3559   .bss:0000000000000028 xDelayedTaskList2
C:\Users\win10\AppData\Local\Temp\ccu7p2Gz.s:3553   .bss:000000000000001b xPendingReadyList
C:\Users\win10\AppData\Local\Temp\ccu7p2Gz.s:467    .text:000000000000038a vTaskDelete
C:\Users\win10\AppData\Local\Temp\ccu7p2Gz.s:490    .text:00000000000003a0 L0
C:\Users\win10\AppData\Local\Temp\ccu7p2Gz.s:576    .text:000000000000044a vTaskStartScheduler
C:\Users\win10\AppData\Local\Temp\ccu7p2Gz.s:3523   .bss:0000000000000003 xIdleTaskHandle
C:\Users\win10\AppData\Local\Temp\ccu7p2Gz.s:3528   .data:0000000000000000 uxTopUsedPriority
C:\Users\win10\AppData\Local\Temp\ccu7p2Gz.s:628    .text:00000000000004a4 vTaskEndScheduler
C:\Users\win10\AppData\Local\Temp\ccu7p2Gz.s:645    .text:00000000000004b0 vTaskSuspendAll
                             .bss:0000000000000002 uxSchedulerSuspended
C:\Users\win10\AppData\Local\Temp\ccu7p2Gz.s:658    .text:00000000000004bc xTaskGetTickCount
C:\Users\win10\AppData\Local\Temp\ccu7p2Gz.s:689    .text:00000000000004d0 xTaskGetTickCountFromISR
C:\Users\win10\AppData\Local\Temp\ccu7p2Gz.s:701    .text:00000000000004da uxTaskGetNumberOfTasks
C:\Users\win10\AppData\Local\Temp\ccu7p2Gz.s:712    .text:00000000000004e0 pcTaskGetName
C:\Users\win10\AppData\Local\Temp\ccu7p2Gz.s:734    .text:00000000000004fa xTaskIncrementTick
C:\Users\win10\AppData\Local\Temp\ccu7p2Gz.s:761    .text:0000000000000534 L0
C:\Users\win10\AppData\Local\Temp\ccu7p2Gz.s:3535   .bss:0000000000000008 xNumOfOverflows
C:\Users\win10\AppData\Local\Temp\ccu7p2Gz.s:884    .text:0000000000000646 L0
C:\Users\win10\AppData\Local\Temp\ccu7p2Gz.s:899    .text:0000000000000666 L0
C:\Users\win10\AppData\Local\Temp\ccu7p2Gz.s:926    .text:000000000000069c L0
C:\Users\win10\AppData\Local\Temp\ccu7p2Gz.s:937    .text:00000000000006b0 L0
C:\Users\win10\AppData\Local\Temp\ccu7p2Gz.s:962    .text:00000000000006e2 L0
C:\Users\win10\AppData\Local\Temp\ccu7p2Gz.s:3537   .bss:0000000000000009 xYieldPending
C:\Users\win10\AppData\Local\Temp\ccu7p2Gz.s:3539   .bss:000000000000000a xPendedTicks
C:\Users\win10\AppData\Local\Temp\ccu7p2Gz.s:1016   .text:0000000000000748 xTaskResumeAll
C:\Users\win10\AppData\Local\Temp\ccu7p2Gz.s:1043   .text:000000000000076e L0
C:\Users\win10\AppData\Local\Temp\ccu7p2Gz.s:1047   .text:0000000000000778 L0
C:\Users\win10\AppData\Local\Temp\ccu7p2Gz.s:1073   .text:00000000000007a6 L0
C:\Users\win10\AppData\Local\Temp\ccu7p2Gz.s:1139   .text:0000000000000826 L0
C:\Users\win10\AppData\Local\Temp\ccu7p2Gz.s:1212   .text:00000000000008bc L0
C:\Users\win10\AppData\Local\Temp\ccu7p2Gz.s:1269   .text:000000000000091a xTaskDelayUntil
C:\Users\win10\AppData\Local\Temp\ccu7p2Gz.s:1349   .text:00000000000009a8 vTaskDelay
C:\Users\win10\AppData\Local\Temp\ccu7p2Gz.s:1377   .text:00000000000009d2 xTaskCatchUpTicks
C:\Users\win10\AppData\Local\Temp\ccu7p2Gz.s:1420   .text:0000000000000a06 vTaskSwitchContext
C:\Users\win10\AppData\Local\Temp\ccu7p2Gz.s:1529   .text:0000000000000ad2 vTaskPlaceOnEventList
C:\Users\win10\AppData\Local\Temp\ccu7p2Gz.s:1554   .text:0000000000000afa vTaskPlaceOnUnorderedEventList
C:\Users\win10\AppData\Local\Temp\ccu7p2Gz.s:1621   .text:0000000000000b88 xTaskRemoveFromEventList
C:\Users\win10\AppData\Local\Temp\ccu7p2Gz.s:1658   .text:0000000000000bca L0
C:\Users\win10\AppData\Local\Temp\ccu7p2Gz.s:1692   .text:0000000000000c0e L0
C:\Users\win10\AppData\Local\Temp\ccu7p2Gz.s:1824   .text:0000000000000d06 vTaskRemoveFromUnorderedEventList
C:\Users\win10\AppData\Local\Temp\ccu7p2Gz.s:1872   .text:0000000000000d5e L0
C:\Users\win10\AppData\Local\Temp\ccu7p2Gz.s:1906   .text:0000000000000da0 L0
C:\Users\win10\AppData\Local\Temp\ccu7p2Gz.s:2005   .text:0000000000000e5c vTaskSetTimeOutState
C:\Users\win10\AppData\Local\Temp\ccu7p2Gz.s:2042   .text:0000000000000e7e vTaskInternalSetTimeOutState
C:\Users\win10\AppData\Local\Temp\ccu7p2Gz.s:2060   .text:0000000000000e96 xTaskCheckForTimeOut
C:\Users\win10\AppData\Local\Temp\ccu7p2Gz.s:2133   .text:0000000000000efc vTaskMissedYield
C:\Users\win10\AppData\Local\Temp\ccu7p2Gz.s:2145   .text:0000000000000f04 xTaskGetCurrentTaskHandle
C:\Users\win10\AppData\Local\Temp\ccu7p2Gz.s:2157   .text:0000000000000f0e uxTaskResetEventItemValue
C:\Users\win10\AppData\Local\Temp\ccu7p2Gz.s:2183   .text:0000000000000f3c ulTaskGenericNotifyTake
C:\Users\win10\AppData\Local\Temp\ccu7p2Gz.s:2187   .text:0000000000000f44 L0
C:\Users\win10\AppData\Local\Temp\ccu7p2Gz.s:2188   .text:0000000000000f46 L0
C:\Users\win10\AppData\Local\Temp\ccu7p2Gz.s:2189   .text:0000000000000f48 L0
C:\Users\win10\AppData\Local\Temp\ccu7p2Gz.s:2239   .text:0000000000000f9c L0
C:\Users\win10\AppData\Local\Temp\ccu7p2Gz.s:2360   .text:000000000000106c xTaskGenericNotifyWait
C:\Users\win10\AppData\Local\Temp\ccu7p2Gz.s:2445   .text:000000000000110a L0
C:\Users\win10\AppData\Local\Temp\ccu7p2Gz.s:2563   .text:00000000000011d2 xTaskGenericNotify
C:\Users\win10\AppData\Local\Temp\ccu7p2Gz.s:2625   .text:0000000000001234 L0
C:\Users\win10\AppData\Local\Temp\ccu7p2Gz.s:2656   .text:0000000000001270 L0
C:\Users\win10\AppData\Local\Temp\ccu7p2Gz.s:2761   .text:000000000000132a L0
C:\Users\win10\AppData\Local\Temp\ccu7p2Gz.s:2859   .text:00000000000013e6 xTaskGenericNotifyFromISR
C:\Users\win10\AppData\Local\Temp\ccu7p2Gz.s:2917   .text:0000000000001450 L0
C:\Users\win10\AppData\Local\Temp\ccu7p2Gz.s:2948   .text:000000000000148c L0
C:\Users\win10\AppData\Local\Temp\ccu7p2Gz.s:3046   .text:0000000000001546 L0
C:\Users\win10\AppData\Local\Temp\ccu7p2Gz.s:3176   .text:000000000000163c vTaskGenericNotifyGiveFromISR
C:\Users\win10\AppData\Local\Temp\ccu7p2Gz.s:3258   .text:00000000000016d4 L0
C:\Users\win10\AppData\Local\Temp\ccu7p2Gz.s:3326   .text:000000000000175e L0
C:\Users\win10\AppData\Local\Temp\ccu7p2Gz.s:3383   .text:00000000000017c4 xTaskGenericNotifyStateClear
C:\Users\win10\AppData\Local\Temp\ccu7p2Gz.s:3435   .text:00000000000017fa ulTaskGenericNotifyValueClear
C:\Users\win10\AppData\Local\Temp\ccu7p2Gz.s:3438   .text:0000000000001800 L0
C:\Users\win10\AppData\Local\Temp\ccu7p2Gz.s:3439   .text:0000000000001802 L0
C:\Users\win10\AppData\Local\Temp\ccu7p2Gz.s:24     .text:000000000000001c .L2
C:\Users\win10\AppData\Local\Temp\ccu7p2Gz.s:78     .text:0000000000000092 .L5
C:\Users\win10\AppData\Local\Temp\ccu7p2Gz.s:71     .text:0000000000000088 .L4
C:\Users\win10\AppData\Local\Temp\ccu7p2Gz.s:114    .text:00000000000000dc .L11
C:\Users\win10\AppData\Local\Temp\ccu7p2Gz.s:161    .text:000000000000012c .L8
C:\Users\win10\AppData\Local\Temp\ccu7p2Gz.s:118    .text:00000000000000e4 .L9
C:\Users\win10\AppData\Local\Temp\ccu7p2Gz.s:110    .text:00000000000000d4 .L13
C:\Users\win10\AppData\Local\Temp\ccu7p2Gz.s:112    .text:00000000000000d8 .L10
C:\Users\win10\AppData\Local\Temp\ccu7p2Gz.s:322    .text:000000000000025c .L14
C:\Users\win10\AppData\Local\Temp\ccu7p2Gz.s:318    .text:0000000000000254 .L16
C:\Users\win10\AppData\Local\Temp\ccu7p2Gz.s:219    .text:0000000000000192 .L01
C:\Users\win10\AppData\Local\Temp\ccu7p2Gz.s:248    .text:00000000000001c6 .L18
C:\Users\win10\AppData\Local\Temp\ccu7p2Gz.s:246    .text:00000000000001c4 .L19
C:\Users\win10\AppData\Local\Temp\ccu7p2Gz.s:238    .text:00000000000001b6 .L20
C:\Users\win10\AppData\Local\Temp\ccu7p2Gz.s:252    .text:00000000000001cc .L21
C:\Users\win10\AppData\Local\Temp\ccu7p2Gz.s:287    .text:0000000000000216 .L22
C:\Users\win10\AppData\Local\Temp\ccu7p2Gz.s:340    .text:000000000000027c .L30
C:\Users\win10\AppData\Local\Temp\ccu7p2Gz.s:347    .text:000000000000028e .L24
C:\Users\win10\AppData\Local\Temp\ccu7p2Gz.s:423    .text:0000000000000324 .L31
C:\Users\win10\AppData\Local\Temp\ccu7p2Gz.s:356    .text:00000000000002a6 .L25
C:\Users\win10\AppData\Local\Temp\ccu7p2Gz.s:461    .text:0000000000000386 .L27
C:\Users\win10\AppData\Local\Temp\ccu7p2Gz.s:457    .text:000000000000037e .L32
C:\Users\win10\AppData\Local\Temp\ccu7p2Gz.s:553    .text:0000000000000424 .L40
C:\Users\win10\AppData\Local\Temp\ccu7p2Gz.s:505    .text:00000000000003be .L35
C:\Users\win10\AppData\Local\Temp\ccu7p2Gz.s:557    .text:000000000000042e .L41
C:\Users\win10\AppData\Local\Temp\ccu7p2Gz.s:537    .text:0000000000000404 .L38
C:\Users\win10\AppData\Local\Temp\ccu7p2Gz.s:546    .text:000000000000041a .L33
C:\Users\win10\AppData\Local\Temp\ccu7p2Gz.s:566    .text:0000000000000444 .L42
C:\Users\win10\AppData\Local\Temp\ccu7p2Gz.s:492    .text:00000000000003a2 .L34
C:\Users\win10\AppData\Local\Temp\ccu7p2Gz.s:518    .text:00000000000003e4 .L37
C:\Users\win10\AppData\Local\Temp\ccu7p2Gz.s:609    .text:0000000000000482 .L45
C:\Users\win10\AppData\Local\Temp\ccu7p2Gz.s:602    .text:0000000000000476 .L44
C:\Users\win10\AppData\Local\Temp\ccu7p2Gz.s:727    .text:00000000000004f0 .L53
C:\Users\win10\AppData\Local\Temp\ccu7p2Gz.s:722    .text:00000000000004ea .L52
C:\Users\win10\AppData\Local\Temp\ccu7p2Gz.s:999    .text:000000000000072a .L55
C:\Users\win10\AppData\Local\Temp\ccu7p2Gz.s:771    .text:000000000000054a .L75
C:\Users\win10\AppData\Local\Temp\ccu7p2Gz.s:971    .text:00000000000006f2 .L69
C:\Users\win10\AppData\Local\Temp\ccu7p2Gz.s:785    .text:000000000000057a .L70
C:\Users\win10\AppData\Local\Temp\ccu7p2Gz.s:886    .text:0000000000000648 .L59
C:\Users\win10\AppData\Local\Temp\ccu7p2Gz.s:756    .text:0000000000000526 .L56
C:\Users\win10\AppData\Local\Temp\ccu7p2Gz.s:973    .text:00000000000006f4 .L57
C:\Users\win10\AppData\Local\Temp\ccu7p2Gz.s:928    .text:000000000000069e .L61
C:\Users\win10\AppData\Local\Temp\ccu7p2Gz.s:817    .text:00000000000005ba .L64
C:\Users\win10\AppData\Local\Temp\ccu7p2Gz.s:879    .text:0000000000000638 .L65
C:\Users\win10\AppData\Local\Temp\ccu7p2Gz.s:787    .text:000000000000057c .L58
C:\Users\win10\AppData\Local\Temp\ccu7p2Gz.s:793    .text:000000000000058a .L76
C:\Users\win10\AppData\Local\Temp\ccu7p2Gz.s:797    .text:0000000000000594 .L77
C:\Users\win10\AppData\Local\Temp\ccu7p2Gz.s:811    .text:00000000000005ac .L62
C:\Users\win10\AppData\Local\Temp\ccu7p2Gz.s:805    .text:00000000000005a2 .L63
C:\Users\win10\AppData\Local\Temp\ccu7p2Gz.s:993    .text:000000000000071e .L67
C:\Users\win10\AppData\Local\Temp\ccu7p2Gz.s:1006   .text:000000000000073e .L54
C:\Users\win10\AppData\Local\Temp\ccu7p2Gz.s:1247   .text:0000000000000908 .L89
C:\Users\win10\AppData\Local\Temp\ccu7p2Gz.s:1263   .text:0000000000000916 .L90
C:\Users\win10\AppData\Local\Temp\ccu7p2Gz.s:1220   .text:00000000000008cc .L80
C:\Users\win10\AppData\Local\Temp\ccu7p2Gz.s:1075   .text:00000000000007a8 .L85
C:\Users\win10\AppData\Local\Temp\ccu7p2Gz.s:1108   .text:00000000000007e8 .L81
C:\Users\win10\AppData\Local\Temp\ccu7p2Gz.s:1141   .text:0000000000000828 .L82
C:\Users\win10\AppData\Local\Temp\ccu7p2Gz.s:1216   .text:00000000000008c4 .L93
C:\Users\win10\AppData\Local\Temp\ccu7p2Gz.s:1053   .text:0000000000000782 .L94
C:\Users\win10\AppData\Local\Temp\ccu7p2Gz.s:1061   .text:0000000000000790 .L95
C:\Users\win10\AppData\Local\Temp\ccu7p2Gz.s:1152   .text:0000000000000840 .L83
C:\Users\win10\AppData\Local\Temp\ccu7p2Gz.s:1069   .text:000000000000079e .L84
C:\Users\win10\AppData\Local\Temp\ccu7p2Gz.s:1240   .text:00000000000008f8 .L86
C:\Users\win10\AppData\Local\Temp\ccu7p2Gz.s:1231   .text:00000000000008e2 .L88
C:\Users\win10\AppData\Local\Temp\ccu7p2Gz.s:1237   .text:00000000000008f0 .L96
C:\Users\win10\AppData\Local\Temp\ccu7p2Gz.s:1227   .text:00000000000008dc .L87
C:\Users\win10\AppData\Local\Temp\ccu7p2Gz.s:1249   .text:000000000000090a .L79
C:\Users\win10\AppData\Local\Temp\ccu7p2Gz.s:1309   .text:0000000000000964 .L98
C:\Users\win10\AppData\Local\Temp\ccu7p2Gz.s:1300   .text:0000000000000954 .L99
C:\Users\win10\AppData\Local\Temp\ccu7p2Gz.s:1331   .text:000000000000098e .L100
C:\Users\win10\AppData\Local\Temp\ccu7p2Gz.s:1321   .text:000000000000097a .L101
C:\Users\win10\AppData\Local\Temp\ccu7p2Gz.s:1343   .text:00000000000009a2 .L103
C:\Users\win10\AppData\Local\Temp\ccu7p2Gz.s:1335   .text:0000000000000996 .L97
C:\Users\win10\AppData\Local\Temp\ccu7p2Gz.s:1367   .text:00000000000009c8 .L105
C:\Users\win10\AppData\Local\Temp\ccu7p2Gz.s:1369   .text:00000000000009cc .L104
C:\Users\win10\AppData\Local\Temp\ccu7p2Gz.s:1431   .text:0000000000000a16 .L109
C:\Users\win10\AppData\Local\Temp\ccu7p2Gz.s:1468   .text:0000000000000a60 .L111
C:\Users\win10\AppData\Local\Temp\ccu7p2Gz.s:1450   .text:0000000000000a3e .L112
C:\Users\win10\AppData\Local\Temp\ccu7p2Gz.s:1519   .text:0000000000000ac6 .L115
C:\Users\win10\AppData\Local\Temp\ccu7p2Gz.s:1497   .text:0000000000000a98 .L113
C:\Users\win10\AppData\Local\Temp\ccu7p2Gz.s:1773   .text:0000000000000cae .L126
C:\Users\win10\AppData\Local\Temp\ccu7p2Gz.s:1789   .text:0000000000000cca .L120
C:\Users\win10\AppData\Local\Temp\ccu7p2Gz.s:1781   .text:0000000000000cbc .L127
C:\Users\win10\AppData\Local\Temp\ccu7p2Gz.s:1705   .text:0000000000000c28 .L122
C:\Users\win10\AppData\Local\Temp\ccu7p2Gz.s:1818   .text:0000000000000d02 .L125
C:\Users\win10\AppData\Local\Temp\ccu7p2Gz.s:1660   .text:0000000000000bcc .L119
C:\Users\win10\AppData\Local\Temp\ccu7p2Gz.s:1694   .text:0000000000000c10 .L121
C:\Users\win10\AppData\Local\Temp\ccu7p2Gz.s:1758   .text:0000000000000c90 .L123
C:\Users\win10\AppData\Local\Temp\ccu7p2Gz.s:1768   .text:0000000000000ca8 .L118
C:\Users\win10\AppData\Local\Temp\ccu7p2Gz.s:1986   .text:0000000000000e40 .L133
C:\Users\win10\AppData\Local\Temp\ccu7p2Gz.s:1994   .text:0000000000000e4e .L134
C:\Users\win10\AppData\Local\Temp\ccu7p2Gz.s:1919   .text:0000000000000dba .L131
C:\Users\win10\AppData\Local\Temp\ccu7p2Gz.s:1981   .text:0000000000000e3a .L128
C:\Users\win10\AppData\Local\Temp\ccu7p2Gz.s:1874   .text:0000000000000d60 .L129
C:\Users\win10\AppData\Local\Temp\ccu7p2Gz.s:1908   .text:0000000000000da2 .L130
C:\Users\win10\AppData\Local\Temp\ccu7p2Gz.s:2095   .text:0000000000000ec8 .L138
C:\Users\win10\AppData\Local\Temp\ccu7p2Gz.s:2108   .text:0000000000000ee0 .L139
C:\Users\win10\AppData\Local\Temp\ccu7p2Gz.s:2119   .text:0000000000000ee6 .L141
C:\Users\win10\AppData\Local\Temp\ccu7p2Gz.s:2241   .text:0000000000000f9e .L146
C:\Users\win10\AppData\Local\Temp\ccu7p2Gz.s:2328   .text:000000000000102e .L149
C:\Users\win10\AppData\Local\Temp\ccu7p2Gz.s:2297   .text:0000000000000ffc .L147
C:\Users\win10\AppData\Local\Temp\ccu7p2Gz.s:2334   .text:000000000000103c .L148
C:\Users\win10\AppData\Local\Temp\ccu7p2Gz.s:2447   .text:000000000000110c .L151
C:\Users\win10\AppData\Local\Temp\ccu7p2Gz.s:2527   .text:000000000000118c .L155
C:\Users\win10\AppData\Local\Temp\ccu7p2Gz.s:2486   .text:0000000000001144 .L152
C:\Users\win10\AppData\Local\Temp\ccu7p2Gz.s:2532   .text:0000000000001198 .L156
C:\Users\win10\AppData\Local\Temp\ccu7p2Gz.s:2495   .text:0000000000001158 .L153
C:\Users\win10\AppData\Local\Temp\ccu7p2Gz.s:2616   .text:0000000000001222 .L158
C:\Users\win10\AppData\Local\Temp\ccu7p2Gz.s:2716   .text:00000000000012d2 .L159
C:\Users\win10\AppData\Local\Temp\ccu7p2Gz.s:2652   .text:0000000000001268 .L160
C:\Users\win10\AppData\Local\Temp\ccu7p2Gz.s:2670   .text:000000000000128a .L161
C:\Users\win10\AppData\Local\Temp\ccu7p2Gz.s:2690   .text:00000000000012b0 .L163
C:\Users\win10\AppData\Local\Temp\ccu7p2Gz.s:2853   .text:00000000000013e2 .L168
C:\Users\win10\AppData\Local\Temp\ccu7p2Gz.s:2729   .text:00000000000012ea .L171
C:\Users\win10\AppData\Local\Temp\ccu7p2Gz.s:2841   .text:00000000000013cc .L172
C:\Users\win10\AppData\Local\Temp\ccu7p2Gz.s:2778   .text:000000000000134c .L167
C:\Users\win10\AppData\Local\Temp\ccu7p2Gz.s:2849   .text:00000000000013da .L173
C:\Users\win10\AppData\Local\Temp\ccu7p2Gz.s:2694   .text:00000000000012b6 .L165
C:\Users\win10\AppData\Local\Temp\ccu7p2Gz.s:2763   .text:000000000000132c .L166
C:\Users\win10\AppData\Local\Temp\ccu7p2Gz.s:2908   .text:000000000000143e .L175
C:\Users\win10\AppData\Local\Temp\ccu7p2Gz.s:3002   .text:00000000000014ee .L176
C:\Users\win10\AppData\Local\Temp\ccu7p2Gz.s:2944   .text:0000000000001484 .L177
C:\Users\win10\AppData\Local\Temp\ccu7p2Gz.s:2962   .text:00000000000014a6 .L178
C:\Users\win10\AppData\Local\Temp\ccu7p2Gz.s:2982   .text:00000000000014cc .L180
C:\Users\win10\AppData\Local\Temp\ccu7p2Gz.s:3167   .text:0000000000001634 .L188
C:\Users\win10\AppData\Local\Temp\ccu7p2Gz.s:3015   .text:0000000000001506 .L191
C:\Users\win10\AppData\Local\Temp\ccu7p2Gz.s:3131   .text:00000000000015ee .L183
C:\Users\win10\AppData\Local\Temp\ccu7p2Gz.s:3125   .text:00000000000015e4 .L192
C:\Users\win10\AppData\Local\Temp\ccu7p2Gz.s:3059   .text:0000000000001560 .L185
C:\Users\win10\AppData\Local\Temp\ccu7p2Gz.s:3170   .text:0000000000001638 .L190
C:\Users\win10\AppData\Local\Temp\ccu7p2Gz.s:3121   .text:00000000000015dc .L187
C:\Users\win10\AppData\Local\Temp\ccu7p2Gz.s:2986   .text:00000000000014d2 .L174
C:\Users\win10\AppData\Local\Temp\ccu7p2Gz.s:3048   .text:0000000000001548 .L184
C:\Users\win10\AppData\Local\Temp\ccu7p2Gz.s:3108   .text:00000000000015c0 .L186
C:\Users\win10\AppData\Local\Temp\ccu7p2Gz.s:3227   .text:0000000000001694 .L200
C:\Users\win10\AppData\Local\Temp\ccu7p2Gz.s:3344   .text:000000000000177e .L195
C:\Users\win10\AppData\Local\Temp\ccu7p2Gz.s:3338   .text:0000000000001774 .L201
C:\Users\win10\AppData\Local\Temp\ccu7p2Gz.s:3271   .text:00000000000016ee .L197
C:\Users\win10\AppData\Local\Temp\ccu7p2Gz.s:3220   .text:000000000000168a .L193
C:\Users\win10\AppData\Local\Temp\ccu7p2Gz.s:3334   .text:000000000000176c .L199
C:\Users\win10\AppData\Local\Temp\ccu7p2Gz.s:3260   .text:00000000000016d6 .L196
C:\Users\win10\AppData\Local\Temp\ccu7p2Gz.s:3320   .text:000000000000174e .L198
C:\Users\win10\AppData\Local\Temp\ccu7p2Gz.s:3424   .text:00000000000017ea .L206
C:\Users\win10\AppData\Local\Temp\ccu7p2Gz.s:3428   .text:00000000000017f4 .L207
C:\Users\win10\AppData\Local\Temp\ccu7p2Gz.s:3393   .text:00000000000017ce .L203
C:\Users\win10\AppData\Local\Temp\ccu7p2Gz.s:3413   .text:00000000000017e4 .L204
C:\Users\win10\AppData\Local\Temp\ccu7p2Gz.s:3517   .text:0000000000001874 .L210
C:\Users\win10\AppData\Local\Temp\ccu7p2Gz.s:3454   .text:0000000000001816 .L209

UNDEFINED SYMBOLS
uxListRemove
vListInsert
vPortYield
vApplicationIdleHook
vPortFree
pvPortMalloc
vListInitialiseItem
pxPortInitialiseStack
vListInitialise
vListInsertEnd
xPortStartScheduler
vPortEndScheduler
__do_copy_data
__do_clear_bss
